(dp1
S'output'
p2
S"<class 'sqlite3.OperationalError'> no such table: AddressUpdate"
p3
sS'layer'
p4
S'C:\\Users\\s8ewv6\\web2py\\applications\\HouseBook\\controllers/address.py'
p5
sS'code'
p6
S'<code object <module> at 000000000B8F1930, file "C:\\Users\\s8ewv6\\web2py\\applications\\HouseBook\\controllers/address.py", line 3>'
p7
sS'snapshot'
p8
(dp9
S'exception'
p10
(dp11
S'__module__'
p12
S"'sqlite3'"
p13
sS'__getslice__'
p14
S"<method-wrapper '__getslice__' of OperationalError object>"
p15
sS'__str__'
p16
S"<method-wrapper '__str__' of OperationalError object>"
p17
sS'__reduce__'
p18
S'<built-in method __reduce__ of OperationalError object>'
p19
sS'__dict__'
p20
S'{}'
p21
sS'__sizeof__'
p22
S'<built-in method __sizeof__ of OperationalError object>'
p23
sS'__weakref__'
p24
S'None'
p25
sS'message'
p26
S"'no such table: AddressUpdate'"
p27
sS'__init__'
p28
S"<method-wrapper '__init__' of OperationalError object>"
p29
sS'__setattr__'
p30
S"<method-wrapper '__setattr__' of OperationalError object>"
p31
sS'__reduce_ex__'
p32
S'<built-in method __reduce_ex__ of OperationalError object>'
p33
sS'__new__'
p34
S'<built-in method __new__ of type object>'
p35
sS'__format__'
p36
S'<built-in method __format__ of OperationalError object>'
p37
sS'__class__'
p38
S"<class 'sqlite3.OperationalError'>"
p39
sS'__doc__'
p40
S'None'
p41
sS'__getitem__'
p42
S"<method-wrapper '__getitem__' of OperationalError object>"
p43
sS'__setstate__'
p44
S'<built-in method __setstate__ of OperationalError object>'
p45
sS'__getattribute__'
p46
S"<method-wrapper '__getattribute__' of OperationalError object>"
p47
sS'args'
p48
S"('no such table: AddressUpdate',)"
p49
sS'__subclasshook__'
p50
S'<built-in method __subclasshook__ of type object>'
p51
sS'__unicode__'
p52
S'<built-in method __unicode__ of OperationalError object>'
p53
sS'__delattr__'
p54
S"<method-wrapper '__delattr__' of OperationalError object>"
p55
sS'__repr__'
p56
S"<method-wrapper '__repr__' of OperationalError object>"
p57
sS'__hash__'
p58
S"<method-wrapper '__hash__' of OperationalError object>"
p59
ssS'evalue'
p60
S'no such table: AddressUpdate'
p61
sS'request'
p62
cgluon.html
XML_unpickle
p63
(S's\xd6^\x00\x00<div><table><tr><td style="font-weight:bold;vertical-align:top;">ajax</td><td style="vertical-align:top;">:</td><td><div>False</div></td></tr><tr><td style="font-weight:bold;vertical-align:top;">application</td><td style="vertical-align:top;">:</td><td><div>HouseBook</div></td></tr><tr><td style="font-weight:bold;vertical-align:top;">args</td><td style="vertical-align:top;">:</td><td><div><table></table></div></td></tr><tr><td style="font-weight:bold;vertical-align:top;">cid</td><td style="vertical-align:top;">:</td><td><div>None</div></td></tr><tr><td style="font-weight:bold;vertical-align:top;">client</td><td style="vertical-align:top;">:</td><td><div>127.0.0.1</div></td></tr><tr><td style="font-weight:bold;vertical-align:top;">controller</td><td style="vertical-align:top;">:</td><td><div>address</div></td></tr><tr><td style="font-weight:bold;vertical-align:top;">cookies</td><td style="vertical-align:top;">:</td><td><div><table><tr><td style="font-weight:bold;vertical-align:top;">session_id_admin</td><td style="vertical-align:top;">:</td><td><div>127.0.0.1-0275983b-434b-4621-9c86-918faff1829c<table><tr><td style="font-weight:bold;vertical-align:top;">comment</td><td style="vertical-align:top;">:</td><td><div></div></td></tr><tr><td style="font-weight:bold;vertical-align:top;">domain</td><td style="vertical-align:top;">:</td><td><div></div></td></tr><tr><td style="font-weight:bold;vertical-align:top;">expires</td><td style="vertical-align:top;">:</td><td><div></div></td></tr><tr><td style="font-weight:bold;vertical-align:top;">httponly</td><td style="vertical-align:top;">:</td><td><div></div></td></tr><tr><td style="font-weight:bold;vertical-align:top;">max-age</td><td style="vertical-align:top;">:</td><td><div></div></td></tr><tr><td style="font-weight:bold;vertical-align:top;">path</td><td style="vertical-align:top;">:</td><td><div></div></td></tr><tr><td style="font-weight:bold;vertical-align:top;">secure</td><td style="vertical-align:top;">:</td><td><div></div></td></tr><tr><td style="font-weight:bold;vertical-align:top;">version</td><td style="vertical-align:top;">:</td><td><div></div></td></tr></table></div></td></tr><tr><td style="font-weight:bold;vertical-align:top;">session_id_housebook</td><td style="vertical-align:top;">:</td><td><div>127.0.0.1-5f16df28-c4c6-49f5-a799-c4a1ebd0658d<table><tr><td style="font-weight:bold;vertical-align:top;">comment</td><td style="vertical-align:top;">:</td><td><div></div></td></tr><tr><td style="font-weight:bold;vertical-align:top;">domain</td><td style="vertical-align:top;">:</td><td><div></div></td></tr><tr><td style="font-weight:bold;vertical-align:top;">expires</td><td style="vertical-align:top;">:</td><td><div></div></td></tr><tr><td style="font-weight:bold;vertical-align:top;">httponly</td><td style="vertical-align:top;">:</td><td><div></div></td></tr><tr><td style="font-weight:bold;vertical-align:top;">max-age</td><td style="vertical-align:top;">:</td><td><div></div></td></tr><tr><td style="font-weight:bold;vertical-align:top;">path</td><td style="vertical-align:top;">:</td><td><div></div></td></tr><tr><td style="font-weight:bold;vertical-align:top;">secure</td><td style="vertical-align:top;">:</td><td><div></div></td></tr><tr><td style="font-weight:bold;vertical-align:top;">version</td><td style="vertical-align:top;">:</td><td><div></div></td></tr></table></div></td></tr></table></div></td></tr><tr><td style="font-weight:bold;vertical-align:top;">env</td><td style="vertical-align:top;">:</td><td><div><table><tr><td style="font-weight:bold;vertical-align:top;">CONTENT_LENGTH</td><td style="vertical-align:top;">:</td><td><div>715</div></td></tr><tr><td style="font-weight:bold;vertical-align:top;">CONTENT_TYPE</td><td style="vertical-align:top;">:</td><td><div>multipart/form-data; boundary=---------------------------211801420527277</div></td></tr><tr><td style="font-weight:bold;vertical-align:top;">HTTP_ACCEPT</td><td style="vertical-align:top;">:</td><td><div>text/html,application/xhtml+xml,application/xml;q=0.9,*/*;q=0.8</div></td></tr><tr><td style="font-weight:bold;vertical-align:top;">HTTP_ACCEPT_ENCODING</td><td style="vertical-align:top;">:</td><td><div>gzip, deflate</div></td></tr><tr><td style="font-weight:bold;vertical-align:top;">HTTP_ACCEPT_LANGUAGE</td><td style="vertical-align:top;">:</td><td><div>en-US,en;q=0.5</div></td></tr><tr><td style="font-weight:bold;vertical-align:top;">HTTP_CONNECTION</td><td style="vertical-align:top;">:</td><td><div>keep-alive</div></td></tr><tr><td style="font-weight:bold;vertical-align:top;">HTTP_CONTENT_LENGTH</td><td style="vertical-align:top;">:</td><td><div>715</div></td></tr><tr><td style="font-weight:bold;vertical-align:top;">HTTP_CONTENT_TYPE</td><td style="vertical-align:top;">:</td><td><div>multipart/form-data; boundary=---------------------------211801420527277</div></td></tr><tr><td style="font-weight:bold;vertical-align:top;">HTTP_COOKIE</td><td style="vertical-align:top;">:</td><td><div>session_id_admin=127.0.0.1-0275983b-434b-4621-9c86-918faff1829c; session_id_housebook=127.0.0.1-5f16df28-c4c6-49f5-a799-c4a1ebd0658d</div></td></tr><tr><td style="font-weight:bold;vertical-align:top;">HTTP_DNT</td><td style="vertical-align:top;">:</td><td><div>1</div></td></tr><tr><td style="font-weight:bold;vertical-align:top;">HTTP_HOST</td><td style="vertical-align:top;">:</td><td><div>127.0.0.1:8000</div></td></tr><tr><td style="font-weight:bold;vertical-align:top;">HTTP_REFERER</td><td style="vertical-align:top;">:</td><td><div>http://127.0.0.1:8000/HouseBook/address/create</div></td></tr><tr><td style="font-weight:bold;vertical-align:top;">HTTP_UPGRADE_INSECURE_REQUESTS</td><td style="vertical-align:top;">:</td><td><div>1</div></td></tr><tr><td style="font-weight:bold;vertical-align:top;">HTTP_USER_AGENT</td><td style="vertical-align:top;">:</td><td><div>Mozilla/5.0 (Windows NT 6.1; WOW64; rv:52.0) Gecko/20100101 Firefox/52.0</div></td></tr><tr><td style="font-weight:bold;vertical-align:top;">PATH_INFO</td><td style="vertical-align:top;">:</td><td><div>/HouseBook/address/create</div></td></tr><tr><td style="font-weight:bold;vertical-align:top;">QUERY_STRING</td><td style="vertical-align:top;">:</td><td><div></div></td></tr><tr><td style="font-weight:bold;vertical-align:top;">REMOTE_ADDR</td><td style="vertical-align:top;">:</td><td><div>127.0.0.1</div></td></tr><tr><td style="font-weight:bold;vertical-align:top;">REMOTE_PORT</td><td style="vertical-align:top;">:</td><td><div>57836</div></td></tr><tr><td style="font-weight:bold;vertical-align:top;">REQUEST_METHOD</td><td style="vertical-align:top;">:</td><td><div>POST</div></td></tr><tr><td style="font-weight:bold;vertical-align:top;">SCRIPT_NAME</td><td style="vertical-align:top;">:</td><td><div></div></td></tr><tr><td style="font-weight:bold;vertical-align:top;">SERVER_NAME</td><td style="vertical-align:top;">:</td><td><div>CHR5BF89</div></td></tr><tr><td style="font-weight:bold;vertical-align:top;">SERVER_PORT</td><td style="vertical-align:top;">:</td><td><div>8000</div></td></tr><tr><td style="font-weight:bold;vertical-align:top;">SERVER_PROTOCOL</td><td style="vertical-align:top;">:</td><td><div>HTTP/1.1</div></td></tr><tr><td style="font-weight:bold;vertical-align:top;">SERVER_SOFTWARE</td><td style="vertical-align:top;">:</td><td><div>Rocket 1.2.6</div></td></tr><tr><td style="font-weight:bold;vertical-align:top;">app_folders</td><td style="vertical-align:top;">:</td><td><div>set([&#x27;C:\\\\Users\\\\s8ewv6\\\\web2py\\\\applications\\\\HouseBook\\\\&#x27;, &#x27;C:\\\\Users\\\\s8ewv6\\\\web2py\\\\applications\\\\test\\\\&#x27;, &#x27;C:\\\\Users\\\\s8ewv6\\\\web2py\\\\applications\\\\app1\\\\&#x27;, &#x27;C:\\\\Users\\\\s8ewv6\\\\web2py\\\\applications\\\\welcome\\\\&#x27;, &#x27;C:\\\\Users\\\\s8ewv6\\\\web2py\\\\applications\\\\admin\\\\&#x27;, &#x27;C:\\\\Users\\\\s8ewv6\\\\web2py\\\\applications\\\\app2\\\\&#x27;])</div></td></tr><tr><td style="font-weight:bold;vertical-align:top;">applications_parent</td><td style="vertical-align:top;">:</td><td><div>C:\\Users\\s8ewv6\\web2py</div></td></tr><tr><td style="font-weight:bold;vertical-align:top;">cmd_args</td><td style="vertical-align:top;">:</td><td><div><table></table></div></td></tr><tr><td style="font-weight:bold;vertical-align:top;">cmd_options</td><td style="vertical-align:top;">:</td><td><div>&lt;Values at 0x3e2c748: {&#x27;verbose&#x27;: False, &#x27;ip&#x27;: &#x27;127.0.0.1&#x27;, &#x27;debuglevel&#x27;: 30, &#x27;with_scheduler&#x27;: False, &#x27;shutdown_timeout&#x27;: 5, &#x27;taskbar&#x27;: False, &#x27;with_coverage&#x27;: False, &#x27;pid_filename&#x27;: &#x27;httpserver.pid&#x27;, &#x27;maxthreads&#x27;: None, &#x27;softcron&#x27;: False, &#x27;server_name&#x27;: &#x27;CHR5BF89&#x27;, &#x27;bpython&#x27;: False, &#x27;nogui&#x27;: False, &#x27;port&#x27;: 8000, &#x27;print_errors&#x27;: False, &#x27;extcron&#x27;: False, &#x27;runcron&#x27;: False, &#x27;run_system_tests&#x27;: False, &#x27;test&#x27;: None, &#x27;folder&#x27;: &#x27;C:\\\\Users\\\\s8ewv6\\\\web2py&#x27;, &#x27;config&#x27;: &#x27;&#x27;, &#x27;minthreads&#x27;: None, &#x27;shell&#x27;: None, &#x27;run&#x27;: &#x27;&#x27;, &#x27;log_filename&#x27;: &#x27;httpserver.log&#x27;, &#x27;profiler_dir&#x27;: None, &#x27;args&#x27;: [&#x27;&#x27;], &#x27;socket_timeout&#x27;: 5, &#x27;ssl_ca_certificate&#x27;: None, &#x27;scheduler&#x27;: None, &#x27;interfaces&#x27;: None, &#x27;ssl_private_key&#x27;: &#x27;&#x27;, &#x27;gae&#x27;: None, &#x27;password&#x27;: &#x27;******&#x27;, &#x27;request_queue_size&#x27;: 5, &#x27;ssl_certificate&#x27;: &#x27;&#x27;, &#x27;cronjob&#x27;: False, &#x27;numthreads&#x27;: None, &#x27;quiet&#x27;: False, &#x27;import_models&#x27;: False, &#x27;timeout&#x27;: 10, &#x27;plain&#x27;: False, &#x27;nobanner&#x27;: False}&gt;</div></td></tr><tr><td style="font-weight:bold;vertical-align:top;">content_length</td><td style="vertical-align:top;">:</td><td><div>715</div></td></tr><tr><td style="font-weight:bold;vertical-align:top;">content_type</td><td style="vertical-align:top;">:</td><td><div>multipart/form-data; boundary=---------------------------211801420527277</div></td></tr><tr><td style="font-weight:bold;vertical-align:top;">db_sessions</td><td style="vertical-align:top;">:</td><td><div>set([])</div></td></tr><tr><td style="font-weight:bold;vertical-align:top;">debugging</td><td style="vertical-align:top;">:</td><td><div>True</div></td></tr><tr><td style="font-weight:bold;vertical-align:top;">gluon_parent</td><td style="vertical-align:top;">:</td><td><div>C:\\Users\\s8ewv6\\web2py</div></td></tr><tr><td style="font-weight:bold;vertical-align:top;">http_accept</td><td style="vertical-align:top;">:</td><td><div>text/html,application/xhtml+xml,application/xml;q=0.9,*/*;q=0.8</div></td></tr><tr><td style="font-weight:bold;vertical-align:top;">http_accept_encoding</td><td style="vertical-align:top;">:</td><td><div>gzip, deflate</div></td></tr><tr><td style="font-weight:bold;vertical-align:top;">http_accept_language</td><td style="vertical-align:top;">:</td><td><div>en-US,en;q=0.5</div></td></tr><tr><td style="font-weight:bold;vertical-align:top;">http_connection</td><td style="vertical-align:top;">:</td><td><div>keep-alive</div></td></tr><tr><td style="font-weight:bold;vertical-align:top;">http_content_length</td><td style="vertical-align:top;">:</td><td><div>715</div></td></tr><tr><td style="font-weight:bold;vertical-align:top;">http_content_type</td><td style="vertical-align:top;">:</td><td><div>multipart/form-data; boundary=---------------------------211801420527277</div></td></tr><tr><td style="font-weight:bold;vertical-align:top;">http_cookie</td><td style="vertical-align:top;">:</td><td><div>session_id_admin=127.0.0.1-0275983b-434b-4621-9c86-918faff1829c; session_id_housebook=127.0.0.1-5f16df28-c4c6-49f5-a799-c4a1ebd0658d</div></td></tr><tr><td style="font-weight:bold;vertical-align:top;">http_dnt</td><td style="vertical-align:top;">:</td><td><div>1</div></td></tr><tr><td style="font-weight:bold;vertical-align:top;">http_host</td><td style="vertical-align:top;">:</td><td><div>127.0.0.1:8000</div></td></tr><tr><td style="font-weight:bold;vertical-align:top;">http_referer</td><td style="vertical-align:top;">:</td><td><div>http://127.0.0.1:8000/HouseBook/address/create</div></td></tr><tr><td style="font-weight:bold;vertical-align:top;">http_upgrade_insecure_requests</td><td style="vertical-align:top;">:</td><td><div>1</div></td></tr><tr><td style="font-weight:bold;vertical-align:top;">http_user_agent</td><td style="vertical-align:top;">:</td><td><div>Mozilla/5.0 (Windows NT 6.1; WOW64; rv:52.0) Gecko/20100101 Firefox/52.0</div></td></tr><tr><td style="font-weight:bold;vertical-align:top;">is_jython</td><td style="vertical-align:top;">:</td><td><div>False</div></td></tr><tr><td style="font-weight:bold;vertical-align:top;">is_py2</td><td style="vertical-align:top;">:</td><td><div>True</div></td></tr><tr><td style="font-weight:bold;vertical-align:top;">is_pypy</td><td style="vertical-align:top;">:</td><td><div>False</div></td></tr><tr><td style="font-weight:bold;vertical-align:top;">is_source</td><td style="vertical-align:top;">:</td><td><div>True</div></td></tr><tr><td style="font-weight:bold;vertical-align:top;">local_hosts</td><td style="vertical-align:top;">:</td><td><div><table><tr><td><div>::1</div></td></tr><tr><td><div>CHR5BF89.corp.gwpnet.com</div></td></tr><tr><td><div>::ffff:127.0.0.1</div></td></tr><tr><td><div>127.0.0.1</div></td></tr><tr><td><div>CHR5BF89</div></td></tr></table></div></td></tr><tr><td style="font-weight:bold;vertical-align:top;">path_info</td><td style="vertical-align:top;">:</td><td><div>/HouseBook/address/create</div></td></tr><tr><td style="font-weight:bold;vertical-align:top;">query_string</td><td style="vertical-align:top;">:</td><td><div></div></td></tr><tr><td style="font-weight:bold;vertical-align:top;">remote_addr</td><td style="vertical-align:top;">:</td><td><div>127.0.0.1</div></td></tr><tr><td style="font-weight:bold;vertical-align:top;">remote_port</td><td style="vertical-align:top;">:</td><td><div>57836</div></td></tr><tr><td style="font-weight:bold;vertical-align:top;">request_method</td><td style="vertical-align:top;">:</td><td><div>POST</div></td></tr><tr><td style="font-weight:bold;vertical-align:top;">request_uri</td><td style="vertical-align:top;">:</td><td><div>/HouseBook/address/create</div></td></tr><tr><td style="font-weight:bold;vertical-align:top;">script_name</td><td style="vertical-align:top;">:</td><td><div></div></td></tr><tr><td style="font-weight:bold;vertical-align:top;">server_name</td><td style="vertical-align:top;">:</td><td><div>CHR5BF89</div></td></tr><tr><td style="font-weight:bold;vertical-align:top;">server_port</td><td style="vertical-align:top;">:</td><td><div>8000</div></td></tr><tr><td style="font-weight:bold;vertical-align:top;">server_protocol</td><td style="vertical-align:top;">:</td><td><div>HTTP/1.1</div></td></tr><tr><td style="font-weight:bold;vertical-align:top;">server_software</td><td style="vertical-align:top;">:</td><td><div>Rocket 1.2.6</div></td></tr><tr><td style="font-weight:bold;vertical-align:top;">web2py_path</td><td style="vertical-align:top;">:</td><td><div>C:\\Users\\s8ewv6\\web2py</div></td></tr><tr><td style="font-weight:bold;vertical-align:top;">web2py_version</td><td style="vertical-align:top;">:</td><td><div>2.15.4-stable+timestamp.2017.09.02.04.02.22</div></td></tr><tr><td style="font-weight:bold;vertical-align:top;">wsgi.errors</td><td style="vertical-align:top;">:</td><td><div>&lt;open file &#x27;&lt;stderr&gt;&#x27;, mode &#x27;w&#x27; at 0x0000000001EE2150&gt;</div></td></tr><tr><td style="font-weight:bold;vertical-align:top;">wsgi.file_wrapper</td><td style="vertical-align:top;">:</td><td><div>&lt;class wsgiref.util.FileWrapper at 0x0000000003DAC528&gt;</div></td></tr><tr><td style="font-weight:bold;vertical-align:top;">wsgi.input</td><td style="vertical-align:top;">:</td><td><div>&lt;socket._fileobject object at 0x000000000B7475E8&gt;</div></td></tr><tr><td style="font-weight:bold;vertical-align:top;">wsgi.multiprocess</td><td style="vertical-align:top;">:</td><td><div>False</div></td></tr><tr><td style="font-weight:bold;vertical-align:top;">wsgi.multithread</td><td style="vertical-align:top;">:</td><td><div>True</div></td></tr><tr><td style="font-weight:bold;vertical-align:top;">wsgi.run_once</td><td style="vertical-align:top;">:</td><td><div>False</div></td></tr><tr><td style="font-weight:bold;vertical-align:top;">wsgi.url_scheme</td><td style="vertical-align:top;">:</td><td><div>http</div></td></tr><tr><td style="font-weight:bold;vertical-align:top;">wsgi.version</td><td style="vertical-align:top;">:</td><td><div><table><tr><td><div>1</div></td></tr><tr><td><div>0</div></td></tr></table></div></td></tr><tr><td style="font-weight:bold;vertical-align:top;">wsgi_errors</td><td style="vertical-align:top;">:</td><td><div>&lt;open file &#x27;&lt;stderr&gt;&#x27;, mode &#x27;w&#x27; at 0x0000000001EE2150&gt;</div></td></tr><tr><td style="font-weight:bold;vertical-align:top;">wsgi_file_wrapper</td><td style="vertical-align:top;">:</td><td><div>&lt;class wsgiref.util.FileWrapper at 0x0000000003DAC528&gt;</div></td></tr><tr><td style="font-weight:bold;vertical-align:top;">wsgi_input</td><td style="vertical-align:top;">:</td><td><div>&lt;socket._fileobject object at 0x000000000B7475E8&gt;</div></td></tr><tr><td style="font-weight:bold;vertical-align:top;">wsgi_multiprocess</td><td style="vertical-align:top;">:</td><td><div>False</div></td></tr><tr><td style="font-weight:bold;vertical-align:top;">wsgi_multithread</td><td style="vertical-align:top;">:</td><td><div>True</div></td></tr><tr><td style="font-weight:bold;vertical-align:top;">wsgi_run_once</td><td style="vertical-align:top;">:</td><td><div>False</div></td></tr><tr><td style="font-weight:bold;vertical-align:top;">wsgi_url_scheme</td><td style="vertical-align:top;">:</td><td><div>http</div></td></tr><tr><td style="font-weight:bold;vertical-align:top;">wsgi_version</td><td style="vertical-align:top;">:</td><td><div><table><tr><td><div>1</div></td></tr><tr><td><div>0</div></td></tr></table></div></td></tr></table></div></td></tr><tr><td style="font-weight:bold;vertical-align:top;">extension</td><td style="vertical-align:top;">:</td><td><div>html</div></td></tr><tr><td style="font-weight:bold;vertical-align:top;">folder</td><td style="vertical-align:top;">:</td><td><div>C:\\Users\\s8ewv6\\web2py\\applications\\HouseBook\\</div></td></tr><tr><td style="font-weight:bold;vertical-align:top;">function</td><td style="vertical-align:top;">:</td><td><div>create</div></td></tr><tr><td style="font-weight:bold;vertical-align:top;">global_settings</td><td style="vertical-align:top;">:</td><td><div><table><tr><td style="font-weight:bold;vertical-align:top;">app_folders</td><td style="vertical-align:top;">:</td><td><div>set([&#x27;C:\\\\Users\\\\s8ewv6\\\\web2py\\\\applications\\\\HouseBook\\\\&#x27;, &#x27;C:\\\\Users\\\\s8ewv6\\\\web2py\\\\applications\\\\test\\\\&#x27;, &#x27;C:\\\\Users\\\\s8ewv6\\\\web2py\\\\applications\\\\app1\\\\&#x27;, &#x27;C:\\\\Users\\\\s8ewv6\\\\web2py\\\\applications\\\\welcome\\\\&#x27;, &#x27;C:\\\\Users\\\\s8ewv6\\\\web2py\\\\applications\\\\admin\\\\&#x27;, &#x27;C:\\\\Users\\\\s8ewv6\\\\web2py\\\\applications\\\\app2\\\\&#x27;])</div></td></tr><tr><td style="font-weight:bold;vertical-align:top;">applications_parent</td><td style="vertical-align:top;">:</td><td><div>C:\\Users\\s8ewv6\\web2py</div></td></tr><tr><td style="font-weight:bold;vertical-align:top;">cmd_args</td><td style="vertical-align:top;">:</td><td><div><table></table></div></td></tr><tr><td style="font-weight:bold;vertical-align:top;">cmd_options</td><td style="vertical-align:top;">:</td><td><div>&lt;Values at 0x3e2c748: {&#x27;verbose&#x27;: False, &#x27;ip&#x27;: &#x27;127.0.0.1&#x27;, &#x27;debuglevel&#x27;: 30, &#x27;with_scheduler&#x27;: False, &#x27;shutdown_timeout&#x27;: 5, &#x27;taskbar&#x27;: False, &#x27;with_coverage&#x27;: False, &#x27;pid_filename&#x27;: &#x27;httpserver.pid&#x27;, &#x27;maxthreads&#x27;: None, &#x27;softcron&#x27;: False, &#x27;server_name&#x27;: &#x27;CHR5BF89&#x27;, &#x27;bpython&#x27;: False, &#x27;nogui&#x27;: False, &#x27;port&#x27;: 8000, &#x27;print_errors&#x27;: False, &#x27;extcron&#x27;: False, &#x27;runcron&#x27;: False, &#x27;run_system_tests&#x27;: False, &#x27;test&#x27;: None, &#x27;folder&#x27;: &#x27;C:\\\\Users\\\\s8ewv6\\\\web2py&#x27;, &#x27;config&#x27;: &#x27;&#x27;, &#x27;minthreads&#x27;: None, &#x27;shell&#x27;: None, &#x27;run&#x27;: &#x27;&#x27;, &#x27;log_filename&#x27;: &#x27;httpserver.log&#x27;, &#x27;profiler_dir&#x27;: None, &#x27;args&#x27;: [&#x27;&#x27;], &#x27;socket_timeout&#x27;: 5, &#x27;ssl_ca_certificate&#x27;: None, &#x27;scheduler&#x27;: None, &#x27;interfaces&#x27;: None, &#x27;ssl_private_key&#x27;: &#x27;&#x27;, &#x27;gae&#x27;: None, &#x27;password&#x27;: &#x27;******&#x27;, &#x27;request_queue_size&#x27;: 5, &#x27;ssl_certificate&#x27;: &#x27;&#x27;, &#x27;cronjob&#x27;: False, &#x27;numthreads&#x27;: None, &#x27;quiet&#x27;: False, &#x27;import_models&#x27;: False, &#x27;timeout&#x27;: 10, &#x27;plain&#x27;: False, &#x27;nobanner&#x27;: False}&gt;</div></td></tr><tr><td style="font-weight:bold;vertical-align:top;">db_sessions</td><td style="vertical-align:top;">:</td><td><div>set([])</div></td></tr><tr><td style="font-weight:bold;vertical-align:top;">debugging</td><td style="vertical-align:top;">:</td><td><div>True</div></td></tr><tr><td style="font-weight:bold;vertical-align:top;">gluon_parent</td><td style="vertical-align:top;">:</td><td><div>C:\\Users\\s8ewv6\\web2py</div></td></tr><tr><td style="font-weight:bold;vertical-align:top;">is_jython</td><td style="vertical-align:top;">:</td><td><div>False</div></td></tr><tr><td style="font-weight:bold;vertical-align:top;">is_py2</td><td style="vertical-align:top;">:</td><td><div>True</div></td></tr><tr><td style="font-weight:bold;vertical-align:top;">is_pypy</td><td style="vertical-align:top;">:</td><td><div>False</div></td></tr><tr><td style="font-weight:bold;vertical-align:top;">is_source</td><td style="vertical-align:top;">:</td><td><div>True</div></td></tr><tr><td style="font-weight:bold;vertical-align:top;">local_hosts</td><td style="vertical-align:top;">:</td><td><div><table><tr><td><div>::1</div></td></tr><tr><td><div>CHR5BF89.corp.gwpnet.com</div></td></tr><tr><td><div>::ffff:127.0.0.1</div></td></tr><tr><td><div>127.0.0.1</div></td></tr><tr><td><div>CHR5BF89</div></td></tr></table></div></td></tr><tr><td style="font-weight:bold;vertical-align:top;">web2py_version</td><td style="vertical-align:top;">:</td><td><div>2.15.4-stable+timestamp.2017.09.02.04.02.22</div></td></tr></table></div></td></tr><tr><td style="font-weight:bold;vertical-align:top;">is_https</td><td style="vertical-align:top;">:</td><td><div>False</div></td></tr><tr><td style="font-weight:bold;vertical-align:top;">is_local</td><td style="vertical-align:top;">:</td><td><div>True</div></td></tr><tr><td style="font-weight:bold;vertical-align:top;">is_restful</td><td style="vertical-align:top;">:</td><td><div>False</div></td></tr><tr><td style="font-weight:bold;vertical-align:top;">is_scheduler</td><td style="vertical-align:top;">:</td><td><div>False</div></td></tr><tr><td style="font-weight:bold;vertical-align:top;">is_shell</td><td style="vertical-align:top;">:</td><td><div>False</div></td></tr><tr><td style="font-weight:bold;vertical-align:top;">now</td><td style="vertical-align:top;">:</td><td><div>datetime.datetime(2017, 11, 15, 8, 48, 26, 467000)</div></td></tr><tr><td style="font-weight:bold;vertical-align:top;">raw_args</td><td style="vertical-align:top;">:</td><td><div></div></td></tr><tr><td style="font-weight:bold;vertical-align:top;">raw_extension</td><td style="vertical-align:top;">:</td><td><div>None</div></td></tr><tr><td style="font-weight:bold;vertical-align:top;">url</td><td style="vertical-align:top;">:</td><td><div>/HouseBook/address/create</div></td></tr><tr><td style="font-weight:bold;vertical-align:top;">utcnow</td><td style="vertical-align:top;">:</td><td><div>datetime.datetime(2017, 11, 15, 7, 48, 26, 467000)</div></td></tr><tr><td style="font-weight:bold;vertical-align:top;">wsgi</td><td style="vertical-align:top;">:</td><td><div>&lt;gluon.main.LazyWSGI object at 0x000000000B291BA8&gt;</div></td></tr></table></div>'
tRp64
sS'frames'
p65
(lp66
(dp67
S'file'
p68
S'C:\\Users\\s8ewv6\\web2py\\gluon\\restricted.py'
p69
sS'dump'
p70
(dp71
S'environment'
p72
S"{'A': <class 'gluon.html.A'>, 'ANY_OF': <class 'gluon.validators.ANY_OF'>, 'ASSIGNJS': <function ASSIGNJS>, 'AppConfig': <function AppConfig>, 'Auth': <class 'gluon.tools.Auth'>, 'B': <class 'gluon.html.B'>, 'BEAUTIFY': <class 'gluon.html.BEAUTIFY'>, 'BODY': <class 'gluon.html.BODY'>, 'BR': <class 'gluon.html.BR'>, 'BUTTON': <class 'gluon.html.BUTTON'>, ...}"
p73
sS'ccode'
p74
S'<code object <module> at 000000000B8F1930, file ...ations\\HouseBook\\controllers/address.py", line 3>'
p75
ssS'lnum'
p76
I219
sS'lines'
p77
(dp78
I214
S'    if environment is None:'
p79
sI215
S'        environment = {}'
p80
sI216
S"    environment['__file__'] = layer"
p81
sI217
S"    environment['__name__'] = '__restricted__'"
p82
sI218
S'    try:'
p83
sI219
S'        exec(ccode, environment)'
p84
sI220
S'    except HTTP:'
p85
sI221
S'        raise'
p86
sI222
S'    except RestrictedError:'
p87
sI223
S'        # do not encapsulate (obfuscate) the original RestrictedError'
p88
ssS'call'
p89
S'(ccode=<code object <module> at 000000000B8F1930, file ...ations\\HouseBook\\controllers/address.py", line 3>, environment={\'A\': <class \'gluon.html.A\'>, \'ANY_OF\': <class \'gluon.validators.ANY_OF\'>, \'ASSIGNJS\': <function ASSIGNJS>, \'AppConfig\': <function AppConfig>, \'Auth\': <class \'gluon.tools.Auth\'>, \'B\': <class \'gluon.html.B\'>, \'BEAUTIFY\': <class \'gluon.html.BEAUTIFY\'>, \'BODY\': <class \'gluon.html.BODY\'>, \'BR\': <class \'gluon.html.BR\'>, \'BUTTON\': <class \'gluon.html.BUTTON\'>, ...}, layer=r\'C:\\Users\\s8ewv6\\web2py\\applications\\HouseBook\\controllers/address.py\', scode=<code object <module> at 000000000B8F1930, file ...ations\\HouseBook\\controllers/address.py", line 3>)'
p90
sS'func'
p91
S'restricted'
p92
sa(dp93
g68
S'C:\\Users\\s8ewv6\\web2py\\applications\\HouseBook\\controllers\\address.py'
p94
sg70
(dp95
sg76
I21
sg77
(dp96
I10
S'    db.AddressUpdate.Updated.writable=True'
p97
sI11
S'    db.AddressUpdate.Updated.readable=True'
p98
sI12
S"    db.AddressUpdate.Status.default = 'New'"
p99
sI13
S'    db.AddressUpdate.Status.writable=False'
p100
sI14
S'    #db.AddressUpdate.Status.readable=True'
p101
sI15
S'    form = SQLFORM(db.AddressUpdate).process()'
p102
sI16
S'    if form.accepted:'
p103
sI17
S'        session.flash = "Entry created"'
p104
sI18
S"        redirect(URL('create'))"
p105
sI19
S'    return locals()'
p106
ssg89
S'()'
p107
sg91
S'<module>'
p108
sa(dp109
g68
S'C:\\Users\\s8ewv6\\web2py\\gluon\\globals.py'
p110
sg70
(dp111
S'self'
p112
S'undefined'
p113
sS'f'
S'<function create>'
p114
ssg76
I414
sg77
(dp115
I416
S'        self._custom_commit = None'
p116
sI417
S'        self._custom_rollback = None'
p117
sI418
S"        self.generic_patterns = ['*']"
p118
sI409
S"        self.flash = ''            # used by the default view layout"
p119
sI410
S'        self.meta = Storage()      # used by web2py_ajax.html'
p120
sI411
S'        self.menu = []             # used by the default view layout'
p121
sI412
S'        self.files = []            # used by web2py_ajax.html'
p122
sI413
S'        self._vars = None'
p123
sI414
S'        self._caller = lambda f: f()'
p124
sI415
S'        self._view_environment = None'
p125
ssg89
S'(f=<function create>)'
p126
sg91
S'<lambda>'
p127
sa(dp128
g68
S'C:\\Users\\s8ewv6\\web2py\\gluon\\tools.py'
p129
sg70
(dp130
S'action'
p131
S'<function create>'
p132
sS'a'
S'()'
p133
sS'b'
g21
ssg76
I3981
sg77
(dp134
I3976
S'                    flag = condition'
p135
sI3977
S'                if not flag:'
p136
sI3978
S'                    current.session.flash = self.messages.access_denied'
p137
sI3979
S'                    return call_or_redirect('
p138
sI3980
S'                        self.settings.on_failed_authorization)'
p139
sI3981
S'                return action(*a, **b)'
p140
sI3982
S'            f.__doc__ = action.__doc__'
p141
sI3983
S'            f.__name__ = action.__name__'
p142
sI3984
S'            f.__dict__.update(action.__dict__)'
p143
sI3985
S'            return f'
p144
ssg89
S'(*a=(), **b={})'
p145
sg91
S'f'
sa(dp146
g68
S'C:\\Users\\s8ewv6\\web2py\\applications\\HouseBook\\controllers\\address.py'
p147
sg70
(dp148
S'global db'
p149
S'<DAL uri="sqlite://storage.sqlite">'
p150
sS'global SQLFORM'
p151
S"<class 'gluon.sqlhtml.SQLFORM'>"
p152
sS').process'
p153
g113
sS'form'
p154
g113
sS'db.AddressUpdate'
p155
S'<Table AddressUpdate (id, Party, CustNo, Updated...reated_on, created_by, modified_on, modified_by)>'
p156
ssg76
I15
sg77
(dp157
I10
S'    db.AddressUpdate.Updated.writable=True'
p158
sI11
S'    db.AddressUpdate.Updated.readable=True'
p159
sI12
S"    db.AddressUpdate.Status.default = 'New'"
p160
sI13
S'    db.AddressUpdate.Status.writable=False'
p161
sI14
S'    #db.AddressUpdate.Status.readable=True'
p162
sI15
S'    form = SQLFORM(db.AddressUpdate).process()'
p163
sI16
S'    if form.accepted:'
p164
sI17
S'        session.flash = "Entry created"'
p165
sI18
S"        redirect(URL('create'))"
p166
sI19
S'    return locals()'
p167
ssg89
S'()'
p168
sg91
S'create'
p169
sa(dp170
g68
S'C:\\Users\\s8ewv6\\web2py\\gluon\\html.py'
p171
sg70
(dp172
S'self'
p173
S'<gluon.sqlhtml.SQLFORM object>'
p174
sS'self.validate'
p175
S'<bound method SQLFORM.validate of <gluon.sqlhtml.SQLFORM object>>'
p176
sS'kwargs'
p177
S"{'dbio': True}"
p178
ssg76
I2300
sg77
(dp179
I2304
S''
sI2295
S'                return dict(form=SQLFORM(db.table).process(onsuccess=my_callback)'
p180
sI2296
S''
sI2297
S''
sI2298
S'        """'
p181
sI2299
S"        kwargs['dbio'] = kwargs.get('dbio', True)  # necessary for SQLHTML forms"
p182
sI2300
S'        self.validate(**kwargs)'
p183
sI2301
S'        return self'
p184
sI2302
S''
sI2303
S'    REDIRECT_JS = "window.location=\'%s\';return false"'
p185
ssg89
S"(self=<gluon.sqlhtml.SQLFORM object>, **kwargs={'dbio': True})"
p186
sg91
S'process'
p187
sa(dp188
g68
S'C:\\Users\\s8ewv6\\web2py\\gluon\\html.py'
p189
sg70
(dp190
S'self'
p191
S'<gluon.sqlhtml.SQLFORM object>'
p192
sS'self.accepts'
p193
S'<bound method SQLFORM.accepts of <gluon.sqlhtml.SQLFORM object>>'
p194
sS'kwargs'
p195
S"{'dbio': True, 'request_vars': <Storage {'Updated': '2017-11-15', 'CustNo': 'as...f4c68e53a', '_formname': 'AddressUpdate/create'}>, 'session': <Storage {'_auth_next': None, '_formkey[AddressU...gin]': ['3afb8bb5-adcf-452b-884d-6cfe3651694c']}>}"
p196
ssg76
I2238
sg77
(dp197
I2240
S'                if next:'
p198
sI2241
S'                    current.session.flash = message_onsuccess'
p199
sI2242
S'                else:'
p200
sI2233
S"        for key in ('message_onsuccess', 'message_onfailure', 'onsuccess',"
p201
sI2234
S"                    'onfailure', 'next', 'message_onchange', 'onchange'):"
p202
sI2235
S'            if key in kwargs:'
p203
sI2236
S'                del kwargs[key]'
p204
sI2237
S''
sI2238
S'        if self.accepts(**kwargs):'
p205
sI2239
S"            if onsuccess == 'flash':"
p206
ssg89
S"(self=<gluon.sqlhtml.SQLFORM object>, **kwargs={'dbio': True, 'request_vars': <Storage {'Updated': '2017-11-15', 'CustNo': 'as...f4c68e53a', '_formname': 'AddressUpdate/create'}>, 'session': <Storage {'_auth_next': None, '_formkey[AddressU...gin]': ['3afb8bb5-adcf-452b-884d-6cfe3651694c']}>})"
p207
sg91
S'validate'
p208
sa(dp209
g68
S'C:\\Users\\s8ewv6\\web2py\\gluon\\sqlhtml.py'
p210
sg70
(dp211
S'self.vars.id'
p212
S'None'
p213
sS'fields'
p214
S"{'Comments': 'asdf', 'CustNo': 'asdf', 'Party': 'asdf', 'Status': 'New', 'Updated': datetime.date(2017, 11, 15), 'created_by': <function lazy_user>, 'created_on': datetime.datetime(2017, 11, 15, 8, 48, 26, 467000), 'is_active': True}"
p215
sS'self'
p216
S'<gluon.sqlhtml.SQLFORM object>'
p217
sS'self.vars'
p218
S"<Storage {'Party': 'asdf', 'Updated': datetime.d..., 11, 15), 'Comments': 'asdf', 'CustNo': 'asdf'}>"
p219
sS'self.table.insert'
p220
S'<bound method Table.insert of <Table AddressUpda...eated_on, created_by, modified_on, modified_by)>>'
p221
sS'self.table'
p222
S'<Table AddressUpdate (id, Party, CustNo, Updated...reated_on, created_by, modified_on, modified_by)>'
p223
ssg76
I1862
sg77
(dp224
I1857
S'                    self.vars.id = self.record[self.id_field_name]'
p225
sI1858
S'                    if fields:'
p226
sI1859
S'                        self.table._db(self.table._id == self.record['
p227
sI1860
S'                                       self.id_field_name]).update(**fields)'
p228
sI1861
S'                else:'
p229
sI1862
S'                    self.vars.id = self.table.insert(**fields)'
p230
sI1863
S''
sI1864
S'        self.accepted = ret'
p231
sI1865
S'        return ret'
p232
sI1866
S''
ssg89
S"(self=<gluon.sqlhtml.SQLFORM object>, request_vars=<Storage {'Updated': '2017-11-15', 'CustNo': 'as...f4c68e53a', '_formname': 'AddressUpdate/create'}>, session=<Storage {'_auth_next': None, '_formkey[AddressU...gin]': ['3afb8bb5-adcf-452b-884d-6cfe3651694c']}>, formname='AddressUpdate/create', keepvalues=False, onvalidation=None, dbio=True, hideerror=False, detect_record_change=False, **kwargs={})"
p233
sg91
S'accepts'
p234
sa(dp235
g68
S'C:\\Users\\s8ewv6\\web2py\\gluon\\packages\\dal\\pydal\\objects.py'
p236
sg70
(dp237
S'self'
p238
S'<Table AddressUpdate (id, Party, CustNo, Updated...reated_on, created_by, modified_on, modified_by)>'
p239
sS'ret'
p240
g113
sS'row.op_values'
p241
S"<bound method OpRow.op_values of <OpRow {'Status...7, 11, 15, 8, 48, 26, 467000), 'Party': 'asdf'}>>"
p242
sS'self._db._adapter'
p243
S'<pydal.adapters.sqlite.SQLite object>'
p244
sS'self._db._adapter.insert'
p245
S'<bound method SQLite.insert of <pydal.adapters.sqlite.SQLite object>>'
p246
sS'self._db'
p247
S'<DAL uri="sqlite://storage.sqlite">'
p248
sS'row'
p249
S"<OpRow {'Status': 'New', 'Updated': datetime.dat...17, 11, 15, 8, 48, 26, 467000), 'Party': 'asdf'}>"
p250
ssg76
I734
sg77
(dp251
I736
S'            for f in self._after_insert:'
p252
sI737
S'                f(row, ret)'
p253
sI738
S'        return ret'
p254
sI729
S''
sI730
S'    def insert(self, **fields):'
p255
sI731
S'        row = self._fields_and_values_for_insert(fields)'
p256
sI732
S'        if any(f(row) for f in self._before_insert):'
p257
sI733
S'            return 0'
p258
sI734
S'        ret = self._db._adapter.insert(self, row.op_values())'
p259
sI735
S'        if ret and self._after_insert:'
p260
ssg89
S"(self=<Table AddressUpdate (id, Party, CustNo, Updated...reated_on, created_by, modified_on, modified_by)>, **fields={'Comments': 'asdf', 'CustNo': 'asdf', 'Party': 'asdf', 'Status': 'New', 'Updated': datetime.date(2017, 11, 15), 'created_by': <function lazy_user>, 'created_on': datetime.datetime(2017, 11, 15, 8, 48, 26, 467000), 'is_active': True})"
p261
sg91
S'insert'
p262
sa(dp263
g68
S'C:\\Users\\s8ewv6\\web2py\\gluon\\packages\\dal\\pydal\\adapters\\base.py'
p264
sg70
(dp265
S'e'
S"OperationalError('no such table: AddressUpdate',)"
p266
ssg76
I486
sg77
(dp267
I481
S'            self.execute(query)'
p268
sI482
S'        except:'
p269
sI483
S'            e = sys.exc_info()[1]'
p270
sI484
S"            if hasattr(table, '_on_insert_error'):"
p271
sI485
S'                return table._on_insert_error(table, fields, e)'
p272
sI486
S'            raise e'
p273
sI487
S"        if hasattr(table, '_primarykey'):"
p274
sI488
S'            pkdict = dict(['
p275
sI489
S'                (k[0].name, k[1]) for k in fields'
p276
sI490
S'                if k[0].name in table._primarykey])'
p277
ssg89
S"(self=<pydal.adapters.sqlite.SQLite object>, table=<Table AddressUpdate (id, Party, CustNo, Updated...reated_on, created_by, modified_on, modified_by)>, fields=[(<pydal.objects.Field object>, 'New'), (<pydal.objects.Field object>, datetime.date(2017, 11, 15)), (<pydal.objects.Field object>, 1L), (<pydal.objects.Field object>, 'asdf'), (<pydal.objects.Field object>, True), (<pydal.objects.Field object>, 'asdf'), (<pydal.objects.Field object>, datetime.datetime(2017, 11, 15, 8, 48, 26, 467000)), (<pydal.objects.Field object>, 1L), (<pydal.objects.Field object>, datetime.datetime(2017, 11, 15, 8, 48, 26, 467000)), (<pydal.objects.Field object>, 'asdf')])"
p278
sg91
g262
sasS'pyver'
p279
S'Python 2.7.13: C:\\Python27\\python.exe (prefix: C:\\Python27)'
p280
sS'session'
p281
g63
(S's\xe4\x08\x00\x00<div><table><tr><td style="font-weight:bold;vertical-align:top;">auth</td><td style="vertical-align:top;">:</td><td><div><table><tr><td style="font-weight:bold;vertical-align:top;">expiration</td><td style="vertical-align:top;">:</td><td><div>3600</div></td></tr><tr><td style="font-weight:bold;vertical-align:top;">hmac_key</td><td style="vertical-align:top;">:</td><td><div>e7744408-7a3b-4aef-9848-600b642a52b7</div></td></tr><tr><td style="font-weight:bold;vertical-align:top;">last_visit</td><td style="vertical-align:top;">:</td><td><div>datetime.datetime(2017, 11, 15, 8, 46, 48, 137000)</div></td></tr><tr><td style="font-weight:bold;vertical-align:top;">remember_me</td><td style="vertical-align:top;">:</td><td><div>False</div></td></tr><tr><td style="font-weight:bold;vertical-align:top;">user</td><td style="vertical-align:top;">:</td><td><div><table><tr><td style="font-weight:bold;vertical-align:top;">email</td><td style="vertical-align:top;">:</td><td><div>ne1@uscolo.edu</div></td></tr><tr><td style="font-weight:bold;vertical-align:top;">first_name</td><td style="vertical-align:top;">:</td><td><div>Hans</div></td></tr><tr><td style="font-weight:bold;vertical-align:top;">id</td><td style="vertical-align:top;">:</td><td><div>1L</div></td></tr><tr><td style="font-weight:bold;vertical-align:top;">last_name</td><td style="vertical-align:top;">:</td><td><div>Wurst</div></td></tr><tr><td style="font-weight:bold;vertical-align:top;">registration_id</td><td style="vertical-align:top;">:</td><td><div></div></td></tr><tr><td style="font-weight:bold;vertical-align:top;">registration_key</td><td style="vertical-align:top;">:</td><td><div></div></td></tr><tr><td style="font-weight:bold;vertical-align:top;">reset_password_key</td><td style="vertical-align:top;">:</td><td><div></div></td></tr></table></div></td></tr><tr><td style="font-weight:bold;vertical-align:top;">user_groups</td><td style="vertical-align:top;">:</td><td><div><table><tr><td style="font-weight:bold;vertical-align:top;">1</td><td style="vertical-align:top;">:</td><td><div>user_1</div></td></tr></table></div></td></tr></table></div></td></tr><tr><td style="font-weight:bold;vertical-align:top;">flash</td><td style="vertical-align:top;">:</td><td><div>None</div></td></tr></table></div>'
tRp282
sS'etype'
p283
S"<class 'sqlite3.OperationalError'>"
p284
sS'date'
p285
S'Wed Nov 15 08:48:26 2017'
p286
sS'response'
p287
g63
(S's\x94?\x00\x00<div><table><tr><td style="font-weight:bold;vertical-align:top;">body</td><td style="vertical-align:top;">:</td><td><div>&lt;cStringIO.StringO object at 0x000000000C294F48&gt;</div></td></tr><tr><td style="font-weight:bold;vertical-align:top;">cookies</td><td style="vertical-align:top;">:</td><td><div><table><tr><td style="font-weight:bold;vertical-align:top;">session_id_housebook</td><td style="vertical-align:top;">:</td><td><div>127.0.0.1-5f16df28-c4c6-49f5-a799-c4a1ebd0658d<table><tr><td style="font-weight:bold;vertical-align:top;">comment</td><td style="vertical-align:top;">:</td><td><div></div></td></tr><tr><td style="font-weight:bold;vertical-align:top;">domain</td><td style="vertical-align:top;">:</td><td><div></div></td></tr><tr><td style="font-weight:bold;vertical-align:top;">expires</td><td style="vertical-align:top;">:</td><td><div></div></td></tr><tr><td style="font-weight:bold;vertical-align:top;">httponly</td><td style="vertical-align:top;">:</td><td><div></div></td></tr><tr><td style="font-weight:bold;vertical-align:top;">max-age</td><td style="vertical-align:top;">:</td><td><div></div></td></tr><tr><td style="font-weight:bold;vertical-align:top;">path</td><td style="vertical-align:top;">:</td><td><div>/</div></td></tr><tr><td style="font-weight:bold;vertical-align:top;">secure</td><td style="vertical-align:top;">:</td><td><div></div></td></tr><tr><td style="font-weight:bold;vertical-align:top;">version</td><td style="vertical-align:top;">:</td><td><div></div></td></tr></table></div></td></tr></table></div></td></tr><tr><td style="font-weight:bold;vertical-align:top;">delimiters</td><td style="vertical-align:top;">:</td><td><div><table><tr><td><div>{{</div></td></tr><tr><td><div>}}</div></td></tr></table></div></td></tr><tr><td style="font-weight:bold;vertical-align:top;">files</td><td style="vertical-align:top;">:</td><td><div><table></table></div></td></tr><tr><td style="font-weight:bold;vertical-align:top;">flash</td><td style="vertical-align:top;">:</td><td><div></div></td></tr><tr><td style="font-weight:bold;vertical-align:top;">form_label_separator</td><td style="vertical-align:top;">:</td><td><div></div></td></tr><tr><td style="font-weight:bold;vertical-align:top;">formstyle</td><td style="vertical-align:top;">:</td><td><div>bootstrap3_inline</div></td></tr><tr><td style="font-weight:bold;vertical-align:top;">generic_patterns</td><td style="vertical-align:top;">:</td><td><div><table><tr><td><div>*</div></td></tr></table></div></td></tr><tr><td style="font-weight:bold;vertical-align:top;">google_analytics_id</td><td style="vertical-align:top;">:</td><td><div>None</div></td></tr><tr><td style="font-weight:bold;vertical-align:top;">headers</td><td style="vertical-align:top;">:</td><td><div><table><tr><td style="font-weight:bold;vertical-align:top;">X-Powered-By</td><td style="vertical-align:top;">:</td><td><div>web2py</div></td></tr></table></div></td></tr><tr><td style="font-weight:bold;vertical-align:top;">logo</td><td style="vertical-align:top;">:</td><td><div><a class="navbar-brand" href="http://www.web2py.com/" id="web2py-logo"><b>web<span>2</span>py</b>&trade;&nbsp;</a></div></td></tr><tr><td style="font-weight:bold;vertical-align:top;">menu</td><td style="vertical-align:top;">:</td><td><div><table><tr><td><div><table><tr><td><div>Home</div></td></tr><tr><td><div>False</div></td></tr><tr><td><div>/HouseBook/default/index</div></td></tr><tr><td><div><table></table></div></td></tr></table></div></td></tr><tr><td><div><table><tr><td><div>My Sites</div></td></tr><tr><td><div>False</div></td></tr><tr><td><div>/admin/default/site</div></td></tr></table></div></td></tr><tr><td><div><table><tr><td><div>This App</div></td></tr><tr><td><div>False</div></td></tr><tr><td><div>#</div></td></tr><tr><td><div><table><tr><td><div><table><tr><td><div>Design</div></td></tr><tr><td><div>False</div></td></tr><tr><td><div>/admin/default/design/HouseBook</div></td></tr></table></div></td></tr><tr><td><div><li class="divider"></li></div></td></tr><tr><td><div><table><tr><td><div>Controller</div></td></tr><tr><td><div>False</div></td></tr><tr><td><div>/admin/default/edit/HouseBook/controllers/address.py</div></td></tr></table></div></td></tr><tr><td><div><table><tr><td><div>View</div></td></tr><tr><td><div>False</div></td></tr><tr><td><div>/admin/default/edit/HouseBook/views/address/create.html</div></td></tr></table></div></td></tr><tr><td><div><table><tr><td><div>DB Model</div></td></tr><tr><td><div>False</div></td></tr><tr><td><div>/admin/default/edit/HouseBook/models/db.py</div></td></tr></table></div></td></tr><tr><td><div><table><tr><td><div>Menu Model</div></td></tr><tr><td><div>False</div></td></tr><tr><td><div>/admin/default/edit/HouseBook/models/menu.py</div></td></tr></table></div></td></tr><tr><td><div><table><tr><td><div>Config.ini</div></td></tr><tr><td><div>False</div></td></tr><tr><td><div>/admin/default/edit/HouseBook/private/appconfig.ini</div></td></tr></table></div></td></tr><tr><td><div><table><tr><td><div>Layout</div></td></tr><tr><td><div>False</div></td></tr><tr><td><div>/admin/default/edit/HouseBook/views/layout.html</div></td></tr></table></div></td></tr><tr><td><div><table><tr><td><div>Stylesheet</div></td></tr><tr><td><div>False</div></td></tr><tr><td><div>/admin/default/edit/HouseBook/static/css/web2py-bootstrap3.css</div></td></tr></table></div></td></tr><tr><td><div><table><tr><td><div>Database</div></td></tr><tr><td><div>False</div></td></tr><tr><td><div>/HouseBook/appadmin/index</div></td></tr></table></div></td></tr><tr><td><div><table><tr><td><div>Errors</div></td></tr><tr><td><div>False</div></td></tr><tr><td><div>/admin/default/errors/HouseBook</div></td></tr></table></div></td></tr><tr><td><div><table><tr><td><div>About</div></td></tr><tr><td><div>False</div></td></tr><tr><td><div>/admin/default/about/HouseBook</div></td></tr></table></div></td></tr></table></div></td></tr></table></div></td></tr><tr><td><div><table><tr><td><div>web2py.com</div></td></tr><tr><td><div>False</div></td></tr><tr><td><div>#</div></td></tr><tr><td><div><table><tr><td><div><table><tr><td><div>Download</div></td></tr><tr><td><div>False</div></td></tr><tr><td><div>http://www.web2py.com/examples/default/download</div></td></tr></table></div></td></tr><tr><td><div><table><tr><td><div>Support</div></td></tr><tr><td><div>False</div></td></tr><tr><td><div>http://www.web2py.com/examples/default/support</div></td></tr></table></div></td></tr><tr><td><div><table><tr><td><div>Demo</div></td></tr><tr><td><div>False</div></td></tr><tr><td><div>http://web2py.com/demo_admin</div></td></tr></table></div></td></tr><tr><td><div><table><tr><td><div>Quick Examples</div></td></tr><tr><td><div>False</div></td></tr><tr><td><div>http://web2py.com/examples/default/examples</div></td></tr></table></div></td></tr><tr><td><div><table><tr><td><div>FAQ</div></td></tr><tr><td><div>False</div></td></tr><tr><td><div>http://web2py.com/AlterEgo</div></td></tr></table></div></td></tr><tr><td><div><table><tr><td><div>Videos</div></td></tr><tr><td><div>False</div></td></tr><tr><td><div>http://www.web2py.com/examples/default/videos/</div></td></tr></table></div></td></tr><tr><td><div><table><tr><td><div>Free Applications</div></td></tr><tr><td><div>False</div></td></tr><tr><td><div>http://web2py.com/appliances</div></td></tr></table></div></td></tr><tr><td><div><table><tr><td><div>Plugins</div></td></tr><tr><td><div>False</div></td></tr><tr><td><div>http://web2py.com/plugins</div></td></tr></table></div></td></tr><tr><td><div><table><tr><td><div>Recipes</div></td></tr><tr><td><div>False</div></td></tr><tr><td><div>http://web2pyslices.com/</div></td></tr></table></div></td></tr></table></div></td></tr></table></div></td></tr><tr><td><div><table><tr><td><div>Documentation</div></td></tr><tr><td><div>False</div></td></tr><tr><td><div>#</div></td></tr><tr><td><div><table><tr><td><div><table><tr><td><div>Online book</div></td></tr><tr><td><div>False</div></td></tr><tr><td><div>http://www.web2py.com/book</div></td></tr></table></div></td></tr><tr><td><div><li class="divider"></li></div></td></tr><tr><td><div><table><tr><td><div>Preface</div></td></tr><tr><td><div>False</div></td></tr><tr><td><div>http://www.web2py.com/book/default/chapter/00</div></td></tr></table></div></td></tr><tr><td><div><table><tr><td><div>Introduction</div></td></tr><tr><td><div>False</div></td></tr><tr><td><div>http://www.web2py.com/book/default/chapter/01</div></td></tr></table></div></td></tr><tr><td><div><table><tr><td><div>Python</div></td></tr><tr><td><div>False</div></td></tr><tr><td><div>http://www.web2py.com/book/default/chapter/02</div></td></tr></table></div></td></tr><tr><td><div><table><tr><td><div>Overview</div></td></tr><tr><td><div>False</div></td></tr><tr><td><div>http://www.web2py.com/book/default/chapter/03</div></td></tr></table></div></td></tr><tr><td><div><table><tr><td><div>The Core</div></td></tr><tr><td><div>False</div></td></tr><tr><td><div>http://www.web2py.com/book/default/chapter/04</div></td></tr></table></div></td></tr><tr><td><div><table><tr><td><div>The Views</div></td></tr><tr><td><div>False</div></td></tr><tr><td><div>http://www.web2py.com/book/default/chapter/05</div></td></tr></table></div></td></tr><tr><td><div><table><tr><td><div>Database</div></td></tr><tr><td><div>False</div></td></tr><tr><td><div>http://www.web2py.com/book/default/chapter/06</div></td></tr></table></div></td></tr><tr><td><div><table><tr><td><div>Forms and Validators</div></td></tr><tr><td><div>False</div></td></tr><tr><td><div>http://www.web2py.com/book/default/chapter/07</div></td></tr></table></div></td></tr><tr><td><div><table><tr><td><div>Email and SMS</div></td></tr><tr><td><div>False</div></td></tr><tr><td><div>http://www.web2py.com/book/default/chapter/08</div></td></tr></table></div></td></tr><tr><td><div><table><tr><td><div>Access Control</div></td></tr><tr><td><div>False</div></td></tr><tr><td><div>http://www.web2py.com/book/default/chapter/09</div></td></tr></table></div></td></tr><tr><td><div><table><tr><td><div>Services</div></td></tr><tr><td><div>False</div></td></tr><tr><td><div>http://www.web2py.com/book/default/chapter/10</div></td></tr></table></div></td></tr><tr><td><div><table><tr><td><div>Ajax Recipes</div></td></tr><tr><td><div>False</div></td></tr><tr><td><div>http://www.web2py.com/book/default/chapter/11</div></td></tr></table></div></td></tr><tr><td><div><table><tr><td><div>Components and Plugins</div></td></tr><tr><td><div>False</div></td></tr><tr><td><div>http://www.web2py.com/book/default/chapter/12</div></td></tr></table></div></td></tr><tr><td><div><table><tr><td><div>Deployment Recipes</div></td></tr><tr><td><div>False</div></td></tr><tr><td><div>http://www.web2py.com/book/default/chapter/13</div></td></tr></table></div></td></tr><tr><td><div><table><tr><td><div>Other Recipes</div></td></tr><tr><td><div>False</div></td></tr><tr><td><div>http://www.web2py.com/book/default/chapter/14</div></td></tr></table></div></td></tr><tr><td><div><table><tr><td><div>Helping web2py</div></td></tr><tr><td><div>False</div></td></tr><tr><td><div>http://www.web2py.com/book/default/chapter/15</div></td></tr></table></div></td></tr><tr><td><div><table><tr><td><div>Buy web2py\'s book</div></td></tr><tr><td><div>False</div></td></tr><tr><td><div>http://stores.lulu.com/web2py</div></td></tr></table></div></td></tr></table></div></td></tr></table></div></td></tr><tr><td><div><table><tr><td><div>Community</div></td></tr><tr><td><div>False</div></td></tr><tr><td><div>None</div></td></tr><tr><td><div><table><tr><td><div><table><tr><td><div>Groups</div></td></tr><tr><td><div>False</div></td></tr><tr><td><div>http://www.web2py.com/examples/default/usergroups</div></td></tr></table></div></td></tr><tr><td><div><table><tr><td><div>Twitter</div></td></tr><tr><td><div>False</div></td></tr><tr><td><div>http://twitter.com/web2py</div></td></tr></table></div></td></tr><tr><td><div><table><tr><td><div>Live Chat</div></td></tr><tr><td><div>False</div></td></tr><tr><td><div>http://webchat.freenode.net/?channels=web2py</div></td></tr></table></div></td></tr></table></div></td></tr></table></div></td></tr></table></div></td></tr><tr><td style="font-weight:bold;vertical-align:top;">meta</td><td style="vertical-align:top;">:</td><td><div><table><tr><td style="font-weight:bold;vertical-align:top;">author</td><td style="vertical-align:top;">:</td><td><div>Your Name &lt;you@example.com&gt;</div></td></tr><tr><td style="font-weight:bold;vertical-align:top;">description</td><td style="vertical-align:top;">:</td><td><div>a cool new app</div></td></tr><tr><td style="font-weight:bold;vertical-align:top;">generator</td><td style="vertical-align:top;">:</td><td><div>Web2py Web Framework</div></td></tr><tr><td style="font-weight:bold;vertical-align:top;">keywords</td><td style="vertical-align:top;">:</td><td><div><table><tr><td><div>web2py</div></td></tr><tr><td><div>python</div></td></tr><tr><td><div>framework</div></td></tr></table></div></td></tr></table></div></td></tr><tr><td style="font-weight:bold;vertical-align:top;">models_to_run</td><td style="vertical-align:top;">:</td><td><div><table><tr><td><div>^\\w+\\.py$</div></td></tr><tr><td><div>^address/\\w+\\.py$</div></td></tr><tr><td><div>^address/create/\\w+\\.py$</div></td></tr></table></div></td></tr><tr><td style="font-weight:bold;vertical-align:top;">postprocessing</td><td style="vertical-align:top;">:</td><td><div><table></table></div></td></tr><tr><td style="font-weight:bold;vertical-align:top;">session_client</td><td style="vertical-align:top;">:</td><td><div>127.0.0.1</div></td></tr><tr><td style="font-weight:bold;vertical-align:top;">session_cookie_compression_level</td><td style="vertical-align:top;">:</td><td><div>None</div></td></tr><tr><td style="font-weight:bold;vertical-align:top;">session_cookie_expires</td><td style="vertical-align:top;">:</td><td><div>None</div></td></tr><tr><td style="font-weight:bold;vertical-align:top;">session_data_name</td><td style="vertical-align:top;">:</td><td><div>session_data_housebook</div></td></tr><tr><td style="font-weight:bold;vertical-align:top;">session_file</td><td style="vertical-align:top;">:</td><td><div>&lt;open file &#x27;C:\\\\Users\\\\s8ewv6\\\\web2py\\\\applications\\\\HouseBook\\\\sessions\\\\076\\\\0c0\\\\127.0.0.1-5f16df28-c4c6-49f5-a799-c4a1ebd0658d&#x27;, mode &#x27;rb+&#x27; at 0x000000000B44E420&gt;</div></td></tr><tr><td style="font-weight:bold;vertical-align:top;">session_filename</td><td style="vertical-align:top;">:</td><td><div>C:\\Users\\s8ewv6\\web2py\\applications\\HouseBook\\sessions\\127.0.0.1-5f16df28-c4c6-49f5-a799-c4a1ebd0658d</div></td></tr><tr><td style="font-weight:bold;vertical-align:top;">session_hash</td><td style="vertical-align:top;">:</td><td><div>96002bf62af0de9e1fd69dd00afc3422</div></td></tr><tr><td style="font-weight:bold;vertical-align:top;">session_id</td><td style="vertical-align:top;">:</td><td><div>127.0.0.1-5f16df28-c4c6-49f5-a799-c4a1ebd0658d</div></td></tr><tr><td style="font-weight:bold;vertical-align:top;">session_id_name</td><td style="vertical-align:top;">:</td><td><div>session_id_housebook</div></td></tr><tr><td style="font-weight:bold;vertical-align:top;">session_locked</td><td style="vertical-align:top;">:</td><td><div>True</div></td></tr><tr><td style="font-weight:bold;vertical-align:top;">session_masterapp</td><td style="vertical-align:top;">:</td><td><div>HouseBook</div></td></tr><tr><td style="font-weight:bold;vertical-align:top;">session_new</td><td style="vertical-align:top;">:</td><td><div>False</div></td></tr><tr><td style="font-weight:bold;vertical-align:top;">session_storage_type</td><td style="vertical-align:top;">:</td><td><div>file</div></td></tr><tr><td style="font-weight:bold;vertical-align:top;">status</td><td style="vertical-align:top;">:</td><td><div>200</div></td></tr><tr><td style="font-weight:bold;vertical-align:top;">subtitle</td><td style="vertical-align:top;">:</td><td><div></div></td></tr><tr><td style="font-weight:bold;vertical-align:top;">title</td><td style="vertical-align:top;">:</td><td><div>Housebook</div></td></tr><tr><td style="font-weight:bold;vertical-align:top;">view</td><td style="vertical-align:top;">:</td><td><div>address/create.html</div></td></tr></table></div>'
tRp288
sS'locals'
p289
(dp290
S'fields'
p291
S"[(<pydal.objects.Field object>, 'New'), (<pydal.objects.Field object>, datetime.date(2017, 11, 15)), (<pydal.objects.Field object>, 1L), (<pydal.objects.Field object>, 'asdf'), (<pydal.objects.Field object>, True), (<pydal.objects.Field object>, 'asdf'), (<pydal.objects.Field object>, datetime.datetime(2017, 11, 15, 8, 48, 26, 467000)), (<pydal.objects.Field object>, 1L), (<pydal.objects.Field object>, datetime.datetime(2017, 11, 15, 8, 48, 26, 467000)), (<pydal.objects.Field object>, 'asdf')]"
p292
sS'self'
p293
S'<pydal.adapters.sqlite.SQLite object>'
p294
sS'e'
S"OperationalError('no such table: AddressUpdate',)"
p295
sS'table'
p296
S'<Table AddressUpdate (id, Party, CustNo, Updated...reated_on, created_by, modified_on, modified_by)>'
p297
sS'query'
p298
S'\'INSERT INTO "AddressUpdate"("Status","Updated","...-11-15 08:48:26\\\',1,\\\'2017-11-15 08:48:26\\\',\\\'asdf\\\');\''
p299
sssS'traceback'
p300
S'Traceback (most recent call last):\n  File "C:\\Users\\s8ewv6\\web2py\\gluon\\restricted.py", line 219, in restricted\n    exec(ccode, environment)\n  File "C:\\Users\\s8ewv6\\web2py\\applications\\HouseBook\\controllers/address.py", line 21, in <module>\n  File "C:\\Users\\s8ewv6\\web2py\\gluon\\globals.py", line 414, in <lambda>\n    self._caller = lambda f: f()\n  File "C:\\Users\\s8ewv6\\web2py\\gluon\\tools.py", line 3981, in f\n    return action(*a, **b)\n  File "C:\\Users\\s8ewv6\\web2py\\applications\\HouseBook\\controllers/address.py", line 15, in create\n    form = SQLFORM(db.AddressUpdate).process()\n  File "C:\\Users\\s8ewv6\\web2py\\gluon\\html.py", line 2300, in process\n    self.validate(**kwargs)\n  File "C:\\Users\\s8ewv6\\web2py\\gluon\\html.py", line 2238, in validate\n    if self.accepts(**kwargs):\n  File "C:\\Users\\s8ewv6\\web2py\\gluon\\sqlhtml.py", line 1862, in accepts\n    self.vars.id = self.table.insert(**fields)\n  File "C:\\Users\\s8ewv6\\web2py\\gluon\\packages\\dal\\pydal\\objects.py", line 734, in insert\n    ret = self._db._adapter.insert(self, row.op_values())\n  File "C:\\Users\\s8ewv6\\web2py\\gluon\\packages\\dal\\pydal\\adapters\\base.py", line 486, in insert\n    raise e\nOperationalError: no such table: AddressUpdate\n'
p301
s.