(dp1
S'output'
p2
S"<class 'sqlite3.OperationalError'> no such table: AddressUpdate"
p3
sS'layer'
p4
S'C:\\Users\\s8ewv6\\web2py\\applications\\HouseBook\\controllers/address.py'
p5
sS'code'
p6
S'<code object <module> at 000000000B21ECB0, file "C:\\Users\\s8ewv6\\web2py\\applications\\HouseBook\\controllers/address.py", line 3>'
p7
sS'snapshot'
p8
(dp9
S'exception'
p10
(dp11
S'__module__'
p12
S"'sqlite3'"
p13
sS'__getslice__'
p14
S"<method-wrapper '__getslice__' of OperationalError object>"
p15
sS'__str__'
p16
S"<method-wrapper '__str__' of OperationalError object>"
p17
sS'__reduce__'
p18
S'<built-in method __reduce__ of OperationalError object>'
p19
sS'__dict__'
p20
S'{}'
p21
sS'__sizeof__'
p22
S'<built-in method __sizeof__ of OperationalError object>'
p23
sS'__weakref__'
p24
S'None'
p25
sS'message'
p26
S"'no such table: AddressUpdate'"
p27
sS'__init__'
p28
S"<method-wrapper '__init__' of OperationalError object>"
p29
sS'__setattr__'
p30
S"<method-wrapper '__setattr__' of OperationalError object>"
p31
sS'__reduce_ex__'
p32
S'<built-in method __reduce_ex__ of OperationalError object>'
p33
sS'__new__'
p34
S'<built-in method __new__ of type object>'
p35
sS'__format__'
p36
S'<built-in method __format__ of OperationalError object>'
p37
sS'__class__'
p38
S"<class 'sqlite3.OperationalError'>"
p39
sS'__doc__'
p40
S'None'
p41
sS'__getitem__'
p42
S"<method-wrapper '__getitem__' of OperationalError object>"
p43
sS'__setstate__'
p44
S'<built-in method __setstate__ of OperationalError object>'
p45
sS'__getattribute__'
p46
S"<method-wrapper '__getattribute__' of OperationalError object>"
p47
sS'args'
p48
S"('no such table: AddressUpdate',)"
p49
sS'__subclasshook__'
p50
S'<built-in method __subclasshook__ of type object>'
p51
sS'__unicode__'
p52
S'<built-in method __unicode__ of OperationalError object>'
p53
sS'__delattr__'
p54
S"<method-wrapper '__delattr__' of OperationalError object>"
p55
sS'__repr__'
p56
S"<method-wrapper '__repr__' of OperationalError object>"
p57
sS'__hash__'
p58
S"<method-wrapper '__hash__' of OperationalError object>"
p59
ssS'evalue'
p60
S'no such table: AddressUpdate'
p61
sS'request'
p62
cgluon.html
XML_unpickle
p63
(S's\'S\x00\x00<div><table><tr><td style="font-weight:bold;vertical-align:top;">ajax</td><td style="vertical-align:top;">:</td><td><div>False</div></td></tr><tr><td style="font-weight:bold;vertical-align:top;">application</td><td style="vertical-align:top;">:</td><td><div>HouseBook</div></td></tr><tr><td style="font-weight:bold;vertical-align:top;">args</td><td style="vertical-align:top;">:</td><td><div><table></table></div></td></tr><tr><td style="font-weight:bold;vertical-align:top;">cid</td><td style="vertical-align:top;">:</td><td><div>None</div></td></tr><tr><td style="font-weight:bold;vertical-align:top;">client</td><td style="vertical-align:top;">:</td><td><div>127.0.0.1</div></td></tr><tr><td style="font-weight:bold;vertical-align:top;">controller</td><td style="vertical-align:top;">:</td><td><div>address</div></td></tr><tr><td style="font-weight:bold;vertical-align:top;">cookies</td><td style="vertical-align:top;">:</td><td><div><table><tr><td style="font-weight:bold;vertical-align:top;">session_id_housebook</td><td style="vertical-align:top;">:</td><td><div>127.0.0.1-67b75b55-8a88-42fa-b2ad-f84c467a4d98<table><tr><td style="font-weight:bold;vertical-align:top;">comment</td><td style="vertical-align:top;">:</td><td><div></div></td></tr><tr><td style="font-weight:bold;vertical-align:top;">domain</td><td style="vertical-align:top;">:</td><td><div></div></td></tr><tr><td style="font-weight:bold;vertical-align:top;">expires</td><td style="vertical-align:top;">:</td><td><div></div></td></tr><tr><td style="font-weight:bold;vertical-align:top;">httponly</td><td style="vertical-align:top;">:</td><td><div></div></td></tr><tr><td style="font-weight:bold;vertical-align:top;">max-age</td><td style="vertical-align:top;">:</td><td><div></div></td></tr><tr><td style="font-weight:bold;vertical-align:top;">path</td><td style="vertical-align:top;">:</td><td><div></div></td></tr><tr><td style="font-weight:bold;vertical-align:top;">secure</td><td style="vertical-align:top;">:</td><td><div></div></td></tr><tr><td style="font-weight:bold;vertical-align:top;">version</td><td style="vertical-align:top;">:</td><td><div></div></td></tr></table></div></td></tr></table></div></td></tr><tr><td style="font-weight:bold;vertical-align:top;">env</td><td style="vertical-align:top;">:</td><td><div><table><tr><td style="font-weight:bold;vertical-align:top;">HTTP_ACCEPT</td><td style="vertical-align:top;">:</td><td><div>text/html,application/xhtml+xml,application/xml;q=0.9,*/*;q=0.8</div></td></tr><tr><td style="font-weight:bold;vertical-align:top;">HTTP_ACCEPT_ENCODING</td><td style="vertical-align:top;">:</td><td><div>gzip, deflate</div></td></tr><tr><td style="font-weight:bold;vertical-align:top;">HTTP_ACCEPT_LANGUAGE</td><td style="vertical-align:top;">:</td><td><div>en-US,en;q=0.5</div></td></tr><tr><td style="font-weight:bold;vertical-align:top;">HTTP_CONNECTION</td><td style="vertical-align:top;">:</td><td><div>keep-alive</div></td></tr><tr><td style="font-weight:bold;vertical-align:top;">HTTP_COOKIE</td><td style="vertical-align:top;">:</td><td><div>session_id_housebook=127.0.0.1-67b75b55-8a88-42fa-b2ad-f84c467a4d98</div></td></tr><tr><td style="font-weight:bold;vertical-align:top;">HTTP_DNT</td><td style="vertical-align:top;">:</td><td><div>1</div></td></tr><tr><td style="font-weight:bold;vertical-align:top;">HTTP_HOST</td><td style="vertical-align:top;">:</td><td><div>127.0.0.1:8000</div></td></tr><tr><td style="font-weight:bold;vertical-align:top;">HTTP_REFERER</td><td style="vertical-align:top;">:</td><td><div>http://127.0.0.1:8000/HouseBook/default/index</div></td></tr><tr><td style="font-weight:bold;vertical-align:top;">HTTP_UPGRADE_INSECURE_REQUESTS</td><td style="vertical-align:top;">:</td><td><div>1</div></td></tr><tr><td style="font-weight:bold;vertical-align:top;">HTTP_USER_AGENT</td><td style="vertical-align:top;">:</td><td><div>Mozilla/5.0 (Windows NT 6.1; WOW64; rv:52.0) Gecko/20100101 Firefox/52.0</div></td></tr><tr><td style="font-weight:bold;vertical-align:top;">PATH_INFO</td><td style="vertical-align:top;">:</td><td><div>/HouseBook/address/index</div></td></tr><tr><td style="font-weight:bold;vertical-align:top;">QUERY_STRING</td><td style="vertical-align:top;">:</td><td><div></div></td></tr><tr><td style="font-weight:bold;vertical-align:top;">REMOTE_ADDR</td><td style="vertical-align:top;">:</td><td><div>127.0.0.1</div></td></tr><tr><td style="font-weight:bold;vertical-align:top;">REMOTE_PORT</td><td style="vertical-align:top;">:</td><td><div>65021</div></td></tr><tr><td style="font-weight:bold;vertical-align:top;">REQUEST_METHOD</td><td style="vertical-align:top;">:</td><td><div>GET</div></td></tr><tr><td style="font-weight:bold;vertical-align:top;">SCRIPT_NAME</td><td style="vertical-align:top;">:</td><td><div></div></td></tr><tr><td style="font-weight:bold;vertical-align:top;">SERVER_NAME</td><td style="vertical-align:top;">:</td><td><div>CHR5BF89</div></td></tr><tr><td style="font-weight:bold;vertical-align:top;">SERVER_PORT</td><td style="vertical-align:top;">:</td><td><div>8000</div></td></tr><tr><td style="font-weight:bold;vertical-align:top;">SERVER_PROTOCOL</td><td style="vertical-align:top;">:</td><td><div>HTTP/1.1</div></td></tr><tr><td style="font-weight:bold;vertical-align:top;">SERVER_SOFTWARE</td><td style="vertical-align:top;">:</td><td><div>Rocket 1.2.6</div></td></tr><tr><td style="font-weight:bold;vertical-align:top;">app_folders</td><td style="vertical-align:top;">:</td><td><div>set([&#x27;C:\\\\Users\\\\s8ewv6\\\\web2py\\\\applications\\\\app2\\\\&#x27;, &#x27;C:\\\\Users\\\\s8ewv6\\\\web2py\\\\applications\\\\HouseBook\\\\&#x27;, &#x27;C:\\\\Users\\\\s8ewv6\\\\web2py\\\\applications\\\\welcome\\\\&#x27;, &#x27;C:\\\\Users\\\\s8ewv6\\\\web2py\\\\applications\\\\admin\\\\&#x27;])</div></td></tr><tr><td style="font-weight:bold;vertical-align:top;">applications_parent</td><td style="vertical-align:top;">:</td><td><div>C:\\Users\\s8ewv6\\web2py</div></td></tr><tr><td style="font-weight:bold;vertical-align:top;">cmd_args</td><td style="vertical-align:top;">:</td><td><div><table></table></div></td></tr><tr><td style="font-weight:bold;vertical-align:top;">cmd_options</td><td style="vertical-align:top;">:</td><td><div>&lt;Values at 0x3c7c748: {&#x27;verbose&#x27;: False, &#x27;ip&#x27;: &#x27;127.0.0.1&#x27;, &#x27;debuglevel&#x27;: 30, &#x27;with_scheduler&#x27;: False, &#x27;shutdown_timeout&#x27;: 5, &#x27;taskbar&#x27;: False, &#x27;with_coverage&#x27;: False, &#x27;pid_filename&#x27;: &#x27;httpserver.pid&#x27;, &#x27;maxthreads&#x27;: None, &#x27;softcron&#x27;: False, &#x27;server_name&#x27;: &#x27;CHR5BF89&#x27;, &#x27;bpython&#x27;: False, &#x27;nogui&#x27;: False, &#x27;port&#x27;: 8000, &#x27;print_errors&#x27;: False, &#x27;extcron&#x27;: False, &#x27;runcron&#x27;: False, &#x27;run_system_tests&#x27;: False, &#x27;test&#x27;: None, &#x27;folder&#x27;: &#x27;C:\\\\Users\\\\s8ewv6\\\\web2py&#x27;, &#x27;config&#x27;: &#x27;&#x27;, &#x27;minthreads&#x27;: None, &#x27;shell&#x27;: None, &#x27;run&#x27;: &#x27;&#x27;, &#x27;log_filename&#x27;: &#x27;httpserver.log&#x27;, &#x27;profiler_dir&#x27;: None, &#x27;args&#x27;: [&#x27;&#x27;], &#x27;socket_timeout&#x27;: 5, &#x27;ssl_ca_certificate&#x27;: None, &#x27;scheduler&#x27;: None, &#x27;interfaces&#x27;: None, &#x27;ssl_private_key&#x27;: &#x27;&#x27;, &#x27;gae&#x27;: None, &#x27;password&#x27;: &#x27;******&#x27;, &#x27;request_queue_size&#x27;: 5, &#x27;ssl_certificate&#x27;: &#x27;&#x27;, &#x27;cronjob&#x27;: False, &#x27;numthreads&#x27;: None, &#x27;quiet&#x27;: False, &#x27;import_models&#x27;: False, &#x27;timeout&#x27;: 10, &#x27;plain&#x27;: False, &#x27;nobanner&#x27;: False}&gt;</div></td></tr><tr><td style="font-weight:bold;vertical-align:top;">db_sessions</td><td style="vertical-align:top;">:</td><td><div>set([])</div></td></tr><tr><td style="font-weight:bold;vertical-align:top;">debugging</td><td style="vertical-align:top;">:</td><td><div>True</div></td></tr><tr><td style="font-weight:bold;vertical-align:top;">gluon_parent</td><td style="vertical-align:top;">:</td><td><div>C:\\Users\\s8ewv6\\web2py</div></td></tr><tr><td style="font-weight:bold;vertical-align:top;">http_accept</td><td style="vertical-align:top;">:</td><td><div>text/html,application/xhtml+xml,application/xml;q=0.9,*/*;q=0.8</div></td></tr><tr><td style="font-weight:bold;vertical-align:top;">http_accept_encoding</td><td style="vertical-align:top;">:</td><td><div>gzip, deflate</div></td></tr><tr><td style="font-weight:bold;vertical-align:top;">http_accept_language</td><td style="vertical-align:top;">:</td><td><div>en-US,en;q=0.5</div></td></tr><tr><td style="font-weight:bold;vertical-align:top;">http_connection</td><td style="vertical-align:top;">:</td><td><div>keep-alive</div></td></tr><tr><td style="font-weight:bold;vertical-align:top;">http_cookie</td><td style="vertical-align:top;">:</td><td><div>session_id_housebook=127.0.0.1-67b75b55-8a88-42fa-b2ad-f84c467a4d98</div></td></tr><tr><td style="font-weight:bold;vertical-align:top;">http_dnt</td><td style="vertical-align:top;">:</td><td><div>1</div></td></tr><tr><td style="font-weight:bold;vertical-align:top;">http_host</td><td style="vertical-align:top;">:</td><td><div>127.0.0.1:8000</div></td></tr><tr><td style="font-weight:bold;vertical-align:top;">http_referer</td><td style="vertical-align:top;">:</td><td><div>http://127.0.0.1:8000/HouseBook/default/index</div></td></tr><tr><td style="font-weight:bold;vertical-align:top;">http_upgrade_insecure_requests</td><td style="vertical-align:top;">:</td><td><div>1</div></td></tr><tr><td style="font-weight:bold;vertical-align:top;">http_user_agent</td><td style="vertical-align:top;">:</td><td><div>Mozilla/5.0 (Windows NT 6.1; WOW64; rv:52.0) Gecko/20100101 Firefox/52.0</div></td></tr><tr><td style="font-weight:bold;vertical-align:top;">is_jython</td><td style="vertical-align:top;">:</td><td><div>False</div></td></tr><tr><td style="font-weight:bold;vertical-align:top;">is_py2</td><td style="vertical-align:top;">:</td><td><div>True</div></td></tr><tr><td style="font-weight:bold;vertical-align:top;">is_pypy</td><td style="vertical-align:top;">:</td><td><div>False</div></td></tr><tr><td style="font-weight:bold;vertical-align:top;">is_source</td><td style="vertical-align:top;">:</td><td><div>True</div></td></tr><tr><td style="font-weight:bold;vertical-align:top;">local_hosts</td><td style="vertical-align:top;">:</td><td><div><table><tr><td><div>::1</div></td></tr><tr><td><div>CHR5BF89.corp.gwpnet.com</div></td></tr><tr><td><div>::ffff:127.0.0.1</div></td></tr><tr><td><div>127.0.0.1</div></td></tr><tr><td><div>CHR5BF89</div></td></tr></table></div></td></tr><tr><td style="font-weight:bold;vertical-align:top;">path_info</td><td style="vertical-align:top;">:</td><td><div>/HouseBook/address/index</div></td></tr><tr><td style="font-weight:bold;vertical-align:top;">query_string</td><td style="vertical-align:top;">:</td><td><div></div></td></tr><tr><td style="font-weight:bold;vertical-align:top;">remote_addr</td><td style="vertical-align:top;">:</td><td><div>127.0.0.1</div></td></tr><tr><td style="font-weight:bold;vertical-align:top;">remote_port</td><td style="vertical-align:top;">:</td><td><div>65021</div></td></tr><tr><td style="font-weight:bold;vertical-align:top;">request_method</td><td style="vertical-align:top;">:</td><td><div>GET</div></td></tr><tr><td style="font-weight:bold;vertical-align:top;">request_uri</td><td style="vertical-align:top;">:</td><td><div>/HouseBook/address/index</div></td></tr><tr><td style="font-weight:bold;vertical-align:top;">script_name</td><td style="vertical-align:top;">:</td><td><div></div></td></tr><tr><td style="font-weight:bold;vertical-align:top;">server_name</td><td style="vertical-align:top;">:</td><td><div>CHR5BF89</div></td></tr><tr><td style="font-weight:bold;vertical-align:top;">server_port</td><td style="vertical-align:top;">:</td><td><div>8000</div></td></tr><tr><td style="font-weight:bold;vertical-align:top;">server_protocol</td><td style="vertical-align:top;">:</td><td><div>HTTP/1.1</div></td></tr><tr><td style="font-weight:bold;vertical-align:top;">server_software</td><td style="vertical-align:top;">:</td><td><div>Rocket 1.2.6</div></td></tr><tr><td style="font-weight:bold;vertical-align:top;">web2py_path</td><td style="vertical-align:top;">:</td><td><div>C:\\Users\\s8ewv6\\web2py</div></td></tr><tr><td style="font-weight:bold;vertical-align:top;">web2py_version</td><td style="vertical-align:top;">:</td><td><div>2.15.4-stable+timestamp.2017.09.02.04.02.22</div></td></tr><tr><td style="font-weight:bold;vertical-align:top;">wsgi.errors</td><td style="vertical-align:top;">:</td><td><div>&lt;open file &#x27;&lt;stderr&gt;&#x27;, mode &#x27;w&#x27; at 0x0000000001F32150&gt;</div></td></tr><tr><td style="font-weight:bold;vertical-align:top;">wsgi.file_wrapper</td><td style="vertical-align:top;">:</td><td><div>&lt;class wsgiref.util.FileWrapper at 0x0000000003BFC528&gt;</div></td></tr><tr><td style="font-weight:bold;vertical-align:top;">wsgi.input</td><td style="vertical-align:top;">:</td><td><div>&lt;socket._fileobject object at 0x000000000AFA5E58&gt;</div></td></tr><tr><td style="font-weight:bold;vertical-align:top;">wsgi.multiprocess</td><td style="vertical-align:top;">:</td><td><div>False</div></td></tr><tr><td style="font-weight:bold;vertical-align:top;">wsgi.multithread</td><td style="vertical-align:top;">:</td><td><div>True</div></td></tr><tr><td style="font-weight:bold;vertical-align:top;">wsgi.run_once</td><td style="vertical-align:top;">:</td><td><div>False</div></td></tr><tr><td style="font-weight:bold;vertical-align:top;">wsgi.url_scheme</td><td style="vertical-align:top;">:</td><td><div>http</div></td></tr><tr><td style="font-weight:bold;vertical-align:top;">wsgi.version</td><td style="vertical-align:top;">:</td><td><div><table><tr><td><div>1</div></td></tr><tr><td><div>0</div></td></tr></table></div></td></tr><tr><td style="font-weight:bold;vertical-align:top;">wsgi_errors</td><td style="vertical-align:top;">:</td><td><div>&lt;open file &#x27;&lt;stderr&gt;&#x27;, mode &#x27;w&#x27; at 0x0000000001F32150&gt;</div></td></tr><tr><td style="font-weight:bold;vertical-align:top;">wsgi_file_wrapper</td><td style="vertical-align:top;">:</td><td><div>&lt;class wsgiref.util.FileWrapper at 0x0000000003BFC528&gt;</div></td></tr><tr><td style="font-weight:bold;vertical-align:top;">wsgi_input</td><td style="vertical-align:top;">:</td><td><div>&lt;socket._fileobject object at 0x000000000AFA5E58&gt;</div></td></tr><tr><td style="font-weight:bold;vertical-align:top;">wsgi_multiprocess</td><td style="vertical-align:top;">:</td><td><div>False</div></td></tr><tr><td style="font-weight:bold;vertical-align:top;">wsgi_multithread</td><td style="vertical-align:top;">:</td><td><div>True</div></td></tr><tr><td style="font-weight:bold;vertical-align:top;">wsgi_run_once</td><td style="vertical-align:top;">:</td><td><div>False</div></td></tr><tr><td style="font-weight:bold;vertical-align:top;">wsgi_url_scheme</td><td style="vertical-align:top;">:</td><td><div>http</div></td></tr><tr><td style="font-weight:bold;vertical-align:top;">wsgi_version</td><td style="vertical-align:top;">:</td><td><div><table><tr><td><div>1</div></td></tr><tr><td><div>0</div></td></tr></table></div></td></tr></table></div></td></tr><tr><td style="font-weight:bold;vertical-align:top;">extension</td><td style="vertical-align:top;">:</td><td><div>html</div></td></tr><tr><td style="font-weight:bold;vertical-align:top;">folder</td><td style="vertical-align:top;">:</td><td><div>C:\\Users\\s8ewv6\\web2py\\applications\\HouseBook\\</div></td></tr><tr><td style="font-weight:bold;vertical-align:top;">function</td><td style="vertical-align:top;">:</td><td><div>index</div></td></tr><tr><td style="font-weight:bold;vertical-align:top;">global_settings</td><td style="vertical-align:top;">:</td><td><div><table><tr><td style="font-weight:bold;vertical-align:top;">app_folders</td><td style="vertical-align:top;">:</td><td><div>set([&#x27;C:\\\\Users\\\\s8ewv6\\\\web2py\\\\applications\\\\app2\\\\&#x27;, &#x27;C:\\\\Users\\\\s8ewv6\\\\web2py\\\\applications\\\\HouseBook\\\\&#x27;, &#x27;C:\\\\Users\\\\s8ewv6\\\\web2py\\\\applications\\\\welcome\\\\&#x27;, &#x27;C:\\\\Users\\\\s8ewv6\\\\web2py\\\\applications\\\\admin\\\\&#x27;])</div></td></tr><tr><td style="font-weight:bold;vertical-align:top;">applications_parent</td><td style="vertical-align:top;">:</td><td><div>C:\\Users\\s8ewv6\\web2py</div></td></tr><tr><td style="font-weight:bold;vertical-align:top;">cmd_args</td><td style="vertical-align:top;">:</td><td><div><table></table></div></td></tr><tr><td style="font-weight:bold;vertical-align:top;">cmd_options</td><td style="vertical-align:top;">:</td><td><div>&lt;Values at 0x3c7c748: {&#x27;verbose&#x27;: False, &#x27;ip&#x27;: &#x27;127.0.0.1&#x27;, &#x27;debuglevel&#x27;: 30, &#x27;with_scheduler&#x27;: False, &#x27;shutdown_timeout&#x27;: 5, &#x27;taskbar&#x27;: False, &#x27;with_coverage&#x27;: False, &#x27;pid_filename&#x27;: &#x27;httpserver.pid&#x27;, &#x27;maxthreads&#x27;: None, &#x27;softcron&#x27;: False, &#x27;server_name&#x27;: &#x27;CHR5BF89&#x27;, &#x27;bpython&#x27;: False, &#x27;nogui&#x27;: False, &#x27;port&#x27;: 8000, &#x27;print_errors&#x27;: False, &#x27;extcron&#x27;: False, &#x27;runcron&#x27;: False, &#x27;run_system_tests&#x27;: False, &#x27;test&#x27;: None, &#x27;folder&#x27;: &#x27;C:\\\\Users\\\\s8ewv6\\\\web2py&#x27;, &#x27;config&#x27;: &#x27;&#x27;, &#x27;minthreads&#x27;: None, &#x27;shell&#x27;: None, &#x27;run&#x27;: &#x27;&#x27;, &#x27;log_filename&#x27;: &#x27;httpserver.log&#x27;, &#x27;profiler_dir&#x27;: None, &#x27;args&#x27;: [&#x27;&#x27;], &#x27;socket_timeout&#x27;: 5, &#x27;ssl_ca_certificate&#x27;: None, &#x27;scheduler&#x27;: None, &#x27;interfaces&#x27;: None, &#x27;ssl_private_key&#x27;: &#x27;&#x27;, &#x27;gae&#x27;: None, &#x27;password&#x27;: &#x27;******&#x27;, &#x27;request_queue_size&#x27;: 5, &#x27;ssl_certificate&#x27;: &#x27;&#x27;, &#x27;cronjob&#x27;: False, &#x27;numthreads&#x27;: None, &#x27;quiet&#x27;: False, &#x27;import_models&#x27;: False, &#x27;timeout&#x27;: 10, &#x27;plain&#x27;: False, &#x27;nobanner&#x27;: False}&gt;</div></td></tr><tr><td style="font-weight:bold;vertical-align:top;">db_sessions</td><td style="vertical-align:top;">:</td><td><div>set([])</div></td></tr><tr><td style="font-weight:bold;vertical-align:top;">debugging</td><td style="vertical-align:top;">:</td><td><div>True</div></td></tr><tr><td style="font-weight:bold;vertical-align:top;">gluon_parent</td><td style="vertical-align:top;">:</td><td><div>C:\\Users\\s8ewv6\\web2py</div></td></tr><tr><td style="font-weight:bold;vertical-align:top;">is_jython</td><td style="vertical-align:top;">:</td><td><div>False</div></td></tr><tr><td style="font-weight:bold;vertical-align:top;">is_py2</td><td style="vertical-align:top;">:</td><td><div>True</div></td></tr><tr><td style="font-weight:bold;vertical-align:top;">is_pypy</td><td style="vertical-align:top;">:</td><td><div>False</div></td></tr><tr><td style="font-weight:bold;vertical-align:top;">is_source</td><td style="vertical-align:top;">:</td><td><div>True</div></td></tr><tr><td style="font-weight:bold;vertical-align:top;">local_hosts</td><td style="vertical-align:top;">:</td><td><div><table><tr><td><div>::1</div></td></tr><tr><td><div>CHR5BF89.corp.gwpnet.com</div></td></tr><tr><td><div>::ffff:127.0.0.1</div></td></tr><tr><td><div>127.0.0.1</div></td></tr><tr><td><div>CHR5BF89</div></td></tr></table></div></td></tr><tr><td style="font-weight:bold;vertical-align:top;">web2py_version</td><td style="vertical-align:top;">:</td><td><div>2.15.4-stable+timestamp.2017.09.02.04.02.22</div></td></tr></table></div></td></tr><tr><td style="font-weight:bold;vertical-align:top;">is_https</td><td style="vertical-align:top;">:</td><td><div>False</div></td></tr><tr><td style="font-weight:bold;vertical-align:top;">is_local</td><td style="vertical-align:top;">:</td><td><div>True</div></td></tr><tr><td style="font-weight:bold;vertical-align:top;">is_restful</td><td style="vertical-align:top;">:</td><td><div>False</div></td></tr><tr><td style="font-weight:bold;vertical-align:top;">is_scheduler</td><td style="vertical-align:top;">:</td><td><div>False</div></td></tr><tr><td style="font-weight:bold;vertical-align:top;">is_shell</td><td style="vertical-align:top;">:</td><td><div>False</div></td></tr><tr><td style="font-weight:bold;vertical-align:top;">now</td><td style="vertical-align:top;">:</td><td><div>datetime.datetime(2017, 11, 15, 18, 32, 21, 959000)</div></td></tr><tr><td style="font-weight:bold;vertical-align:top;">raw_args</td><td style="vertical-align:top;">:</td><td><div></div></td></tr><tr><td style="font-weight:bold;vertical-align:top;">raw_extension</td><td style="vertical-align:top;">:</td><td><div>None</div></td></tr><tr><td style="font-weight:bold;vertical-align:top;">url</td><td style="vertical-align:top;">:</td><td><div>/HouseBook/address/index</div></td></tr><tr><td style="font-weight:bold;vertical-align:top;">utcnow</td><td style="vertical-align:top;">:</td><td><div>datetime.datetime(2017, 11, 15, 17, 32, 21, 959000)</div></td></tr><tr><td style="font-weight:bold;vertical-align:top;">wsgi</td><td style="vertical-align:top;">:</td><td><div>&lt;gluon.main.LazyWSGI object at 0x000000000B58D0F0&gt;</div></td></tr></table></div>'
tRp64
sS'frames'
p65
(lp66
(dp67
S'file'
p68
S'C:\\Users\\s8ewv6\\web2py\\gluon\\restricted.py'
p69
sS'dump'
p70
(dp71
S'environment'
p72
S"{'A': <class 'gluon.html.A'>, 'ANY_OF': <class 'gluon.validators.ANY_OF'>, 'ASSIGNJS': <function ASSIGNJS>, 'AppConfig': <function AppConfig>, 'Auth': <class 'gluon.tools.Auth'>, 'B': <class 'gluon.html.B'>, 'BEAUTIFY': <class 'gluon.html.BEAUTIFY'>, 'BODY': <class 'gluon.html.BODY'>, 'BR': <class 'gluon.html.BR'>, 'BUTTON': <class 'gluon.html.BUTTON'>, ...}"
p73
sS'ccode'
p74
S'<code object <module> at 000000000B21ECB0, file ...ations\\HouseBook\\controllers/address.py", line 3>'
p75
ssS'lnum'
p76
I219
sS'lines'
p77
(dp78
I214
S'    if environment is None:'
p79
sI215
S'        environment = {}'
p80
sI216
S"    environment['__file__'] = layer"
p81
sI217
S"    environment['__name__'] = '__restricted__'"
p82
sI218
S'    try:'
p83
sI219
S'        exec(ccode, environment)'
p84
sI220
S'    except HTTP:'
p85
sI221
S'        raise'
p86
sI222
S'    except RestrictedError:'
p87
sI223
S'        # do not encapsulate (obfuscate) the original RestrictedError'
p88
ssS'call'
p89
S'(ccode=<code object <module> at 000000000B21ECB0, file ...ations\\HouseBook\\controllers/address.py", line 3>, environment={\'A\': <class \'gluon.html.A\'>, \'ANY_OF\': <class \'gluon.validators.ANY_OF\'>, \'ASSIGNJS\': <function ASSIGNJS>, \'AppConfig\': <function AppConfig>, \'Auth\': <class \'gluon.tools.Auth\'>, \'B\': <class \'gluon.html.B\'>, \'BEAUTIFY\': <class \'gluon.html.BEAUTIFY\'>, \'BODY\': <class \'gluon.html.BODY\'>, \'BR\': <class \'gluon.html.BR\'>, \'BUTTON\': <class \'gluon.html.BUTTON\'>, ...}, layer=r\'C:\\Users\\s8ewv6\\web2py\\applications\\HouseBook\\controllers/address.py\', scode=<code object <module> at 000000000B21ECB0, file ...ations\\HouseBook\\controllers/address.py", line 3>)'
p90
sS'func'
p91
S'restricted'
p92
sa(dp93
g68
S'C:\\Users\\s8ewv6\\web2py\\applications\\HouseBook\\controllers\\address.py'
p94
sg70
(dp95
sg76
I21
sg77
(dp96
I10
S'    db.AddressUpdate.Updated.writable=True'
p97
sI11
S'    db.AddressUpdate.Updated.readable=True'
p98
sI12
S"    db.AddressUpdate.Status.default = 'New'"
p99
sI13
S'    db.AddressUpdate.Status.writable=False'
p100
sI14
S'    #db.AddressUpdate.Status.readable=True'
p101
sI15
S'    form = SQLFORM(db.AddressUpdate).process()'
p102
sI16
S'    if form.accepted:'
p103
sI17
S'        session.flash = "Entry created"'
p104
sI18
S"        redirect(URL('create'))"
p105
sI19
S'    return locals()'
p106
ssg89
S'()'
p107
sg91
S'<module>'
p108
sa(dp109
g68
S'C:\\Users\\s8ewv6\\web2py\\gluon\\globals.py'
p110
sg70
(dp111
S'self'
p112
S'undefined'
p113
sS'f'
S'<function index>'
p114
ssg76
I414
sg77
(dp115
I416
S'        self._custom_commit = None'
p116
sI417
S'        self._custom_rollback = None'
p117
sI418
S"        self.generic_patterns = ['*']"
p118
sI409
S"        self.flash = ''            # used by the default view layout"
p119
sI410
S'        self.meta = Storage()      # used by web2py_ajax.html'
p120
sI411
S'        self.menu = []             # used by the default view layout'
p121
sI412
S'        self.files = []            # used by web2py_ajax.html'
p122
sI413
S'        self._vars = None'
p123
sI414
S'        self._caller = lambda f: f()'
p124
sI415
S'        self._view_environment = None'
p125
ssg89
S'(f=<function index>)'
p126
sg91
S'<lambda>'
p127
sa(dp128
g68
S'C:\\Users\\s8ewv6\\web2py\\applications\\HouseBook\\controllers\\address.py'
p129
sg70
(dp130
S'global db'
p131
S'<DAL uri="sqlite://storage.sqlite">'
p132
sS'worklist'
p133
g113
sS').select'
p134
g113
sS'db.AddressUpdate'
p135
S'<Table AddressUpdate (id, Party, CustNo, Updated...reated_on, created_by, modified_on, modified_by)>'
p136
ssg76
I4
sg77
(dp137
I2
S'# try something like'
p138
sI3
S'def index():'
p139
sI4
S'    worklist = db(db.AddressUpdate).select()'
p140
sI5
S'    return locals()'
p141
sI6
S''
sI7
S'@auth.requires_login()'
p142
sI8
S'def create():'
p143
sI9
S'    db.AddressUpdate.Updated.default = request.now'
p144
sI10
S'    db.AddressUpdate.Updated.writable=True'
p145
sI11
S'    db.AddressUpdate.Updated.readable=True'
p146
ssg89
S'()'
p147
sg91
S'index'
p148
sa(dp149
g68
S'C:\\Users\\s8ewv6\\web2py\\gluon\\packages\\dal\\pydal\\objects.py'
p150
sg70
(dp151
S'self.query'
p152
S'<Query ("AddressUpdate"."id" IS NOT NULL)>'
p153
sS'adapter.select'
p154
S'<bound method SQLite.select of <pydal.adapters.sqlite.SQLite object>>'
p155
sS'fields'
p156
S'[<pydal.objects.Field object>, <pydal.objects.Field object>, <pydal.objects.Field object>, <pydal.objects.Field object>, <pydal.objects.Field object>, <pydal.objects.Field object>, <pydal.objects.Field object>, <pydal.objects.Field object>, <pydal.objects.Field object>, <pydal.objects.Field object>, <pydal.objects.Field object>]'
p157
sS'adapter'
p158
S'<pydal.adapters.sqlite.SQLite object>'
p159
sS'attributes'
p160
g21
sS'self'
p161
S'<Set ("AddressUpdate"."id" IS NOT NULL)>'
p162
ssg76
I2211
sg77
(dp163
I2208
S"                                    attributes.get('orderby', None),"
p164
sI2209
S"                                    attributes.get('groupby', None))"
p165
sI2210
S'        fields = adapter.expand_all(fields, tablenames)'
p166
sI2211
S'        return adapter.select(self.query, fields, attributes)'
p167
sI2212
S''
sI2213
S'    def iterselect(self, *fields, **attributes):'
p168
sI2214
S'        adapter = self.db._adapter'
p169
sI2215
S'        tablenames = adapter.tables(self.query,'
p170
sI2206
S"                                    attributes.get('join', None),"
p171
sI2207
S"                                    attributes.get('left', None),"
p172
ssg89
S'(self=<Set ("AddressUpdate"."id" IS NOT NULL)>, *fields=[<pydal.objects.Field object>, <pydal.objects.Field object>, <pydal.objects.Field object>, <pydal.objects.Field object>, <pydal.objects.Field object>, <pydal.objects.Field object>, <pydal.objects.Field object>, <pydal.objects.Field object>, <pydal.objects.Field object>, <pydal.objects.Field object>, <pydal.objects.Field object>], **attributes={})'
p173
sg91
S'select'
p174
sa(dp175
g68
S'C:\\Users\\s8ewv6\\web2py\\gluon\\packages\\dal\\pydal\\adapters\\sqlite.py'
p176
sg70
(dp177
S'fields'
p178
S'[<pydal.objects.Field object>, <pydal.objects.Field object>, <pydal.objects.Field object>, <pydal.objects.Field object>, <pydal.objects.Field object>, <pydal.objects.Field object>, <pydal.objects.Field object>, <pydal.objects.Field object>, <pydal.objects.Field object>, <pydal.objects.Field object>, <pydal.objects.Field object>]'
p179
sS'self'
p180
S'<pydal.adapters.sqlite.SQLite object>'
p181
sS').select'
p182
S'<bound method SQLite.select of <pydal.adapters.sqlite.SQLite object>>'
p183
sS'attributes'
p184
g21
sS'query'
p185
S'<Query ("AddressUpdate"."id" IS NOT NULL)>'
p186
sS'builtinsuper'
p187
S"<type 'super'>"
p188
sS'global SQLite'
p189
S"<class 'pydal.adapters.sqlite.SQLite'>"
p190
ssg76
I82
sg77
(dp191
I77
S"            self.execute('PRAGMA foreign_keys=ON;')"
p192
sI78
S''
sI79
S'    def select(self, query, fields, attributes):'
p193
sI80
S"        if attributes.get('for_update', False) and 'cache' not in attributes:"
p194
sI81
S"            self.execute('BEGIN IMMEDIATE TRANSACTION;')"
p195
sI82
S'        return super(SQLite, self).select(query, fields, attributes)'
p196
sI83
S''
sI84
S'    def delete(self, table, query):'
p197
sI85
S'        db = self.db'
p198
sI86
S'        deleted = [x[table._id.name] for x in db(query).select(table._id)]'
p199
ssg89
S'(self=<pydal.adapters.sqlite.SQLite object>, query=<Query ("AddressUpdate"."id" IS NOT NULL)>, fields=[<pydal.objects.Field object>, <pydal.objects.Field object>, <pydal.objects.Field object>, <pydal.objects.Field object>, <pydal.objects.Field object>, <pydal.objects.Field object>, <pydal.objects.Field object>, <pydal.objects.Field object>, <pydal.objects.Field object>, <pydal.objects.Field object>, <pydal.objects.Field object>], attributes={})'
p200
sg91
g174
sa(dp201
g68
S'C:\\Users\\s8ewv6\\web2py\\gluon\\packages\\dal\\pydal\\adapters\\base.py'
p202
sg70
(dp203
S'self._select_aux'
p204
S'<bound method SQLite._select_aux of <pydal.adapters.sqlite.SQLite object>>'
p205
sS'fields'
p206
S'[<pydal.objects.Field object>, <pydal.objects.Field object>, <pydal.objects.Field object>, <pydal.objects.Field object>, <pydal.objects.Field object>, <pydal.objects.Field object>, <pydal.objects.Field object>, <pydal.objects.Field object>, <pydal.objects.Field object>, <pydal.objects.Field object>, <pydal.objects.Field object>]'
p207
sS'self'
p208
S'<pydal.adapters.sqlite.SQLite object>'
p209
sS'sql'
p210
S'\'SELECT "AddressUpdate"."id", "AddressUpdate"."Pa...Update" WHERE ("AddressUpdate"."id" IS NOT NULL);\''
p211
sS'attributes'
p212
g21
sS'colnames'
p213
S"['AddressUpdate.id', 'AddressUpdate.Party', 'AddressUpdate.CustNo', 'AddressUpdate.Updated', 'AddressUpdate.Status', 'AddressUpdate.Comments', 'AddressUpdate.is_active', 'AddressUpdate.created_on', 'AddressUpdate.created_by', 'AddressUpdate.modified_on', 'AddressUpdate.modified_by']"
p214
ssg76
I762
sg77
(dp215
I757
S'        colnames, sql = self._select_wcols(query, fields, **attributes)'
p216
sI758
S"        cache = attributes.get('cache', None)"
p217
sI759
S"        if cache and attributes.get('cacheable', False):"
p218
sI760
S'            return self._cached_select('
p219
sI761
S'                cache, sql, fields, attributes, colnames)'
p220
sI762
S'        return self._select_aux(sql, fields, attributes, colnames)'
p221
sI763
S''
sI764
S'    def iterselect(self, query, fields, attributes):'
p222
sI765
S'        colnames, sql = self._select_wcols(query, fields, **attributes)'
p223
sI766
S"        cacheable = attributes.get('cacheable', False)"
p224
ssg89
S'(self=<pydal.adapters.sqlite.SQLite object>, query=<Query ("AddressUpdate"."id" IS NOT NULL)>, fields=[<pydal.objects.Field object>, <pydal.objects.Field object>, <pydal.objects.Field object>, <pydal.objects.Field object>, <pydal.objects.Field object>, <pydal.objects.Field object>, <pydal.objects.Field object>, <pydal.objects.Field object>, <pydal.objects.Field object>, <pydal.objects.Field object>, <pydal.objects.Field object>], attributes={})'
p225
sg91
g174
sa(dp226
g68
S'C:\\Users\\s8ewv6\\web2py\\gluon\\packages\\dal\\pydal\\adapters\\base.py'
p227
sg70
(dp228
S'self'
p229
S'<pydal.adapters.sqlite.SQLite object>'
p230
sS'rows'
p231
g113
sS'self._select_aux_execute'
p232
S'<bound method SQLite._select_aux_execute of <pydal.adapters.sqlite.SQLite object>>'
p233
sS'sql'
p234
S'\'SELECT "AddressUpdate"."id", "AddressUpdate"."Pa...Update" WHERE ("AddressUpdate"."id" IS NOT NULL);\''
p235
ssg76
I718
sg77
(dp236
I713
S'        return self.cursor.fetchall()'
p237
sI714
S''
sI715
S'    def _select_aux(self, sql, fields, attributes, colnames):'
p238
sI716
S"        cache = attributes.get('cache', None)"
p239
sI717
S'        if not cache:'
p240
sI718
S'            rows = self._select_aux_execute(sql)'
p241
sI719
S'        else:'
p242
sI720
S'            if isinstance(cache, dict):'
p243
sI721
S"                cache_model = cache['model']"
p244
sI722
S"                time_expire = cache['expiration']"
p245
ssg89
S'(self=<pydal.adapters.sqlite.SQLite object>, sql=\'SELECT "AddressUpdate"."id", "AddressUpdate"."Pa...Update" WHERE ("AddressUpdate"."id" IS NOT NULL);\', fields=[<pydal.objects.Field object>, <pydal.objects.Field object>, <pydal.objects.Field object>, <pydal.objects.Field object>, <pydal.objects.Field object>, <pydal.objects.Field object>, <pydal.objects.Field object>, <pydal.objects.Field object>, <pydal.objects.Field object>, <pydal.objects.Field object>, <pydal.objects.Field object>], attributes={}, colnames=[\'AddressUpdate.id\', \'AddressUpdate.Party\', \'AddressUpdate.CustNo\', \'AddressUpdate.Updated\', \'AddressUpdate.Status\', \'AddressUpdate.Comments\', \'AddressUpdate.is_active\', \'AddressUpdate.created_on\', \'AddressUpdate.created_by\', \'AddressUpdate.modified_on\', \'AddressUpdate.modified_by\'])'
p246
sg91
S'_select_aux'
p247
sa(dp248
g68
S'C:\\Users\\s8ewv6\\web2py\\gluon\\packages\\dal\\pydal\\adapters\\base.py'
p249
sg70
(dp250
S'self'
p251
S'<pydal.adapters.sqlite.SQLite object>'
p252
sS'self.execute'
p253
S'<bound method SQLite.wrap of <pydal.adapters.sqlite.SQLite object>>'
p254
sS'sql'
p255
S'\'SELECT "AddressUpdate"."id", "AddressUpdate"."Pa...Update" WHERE ("AddressUpdate"."id" IS NOT NULL);\''
p256
ssg76
I712
sg77
(dp257
I707
S''
sI708
S'    def nested_select(self, query, fields, attributes):'
p258
sI709
S'        return Select(self.db, query, fields, attributes)'
p259
sI710
S''
sI711
S'    def _select_aux_execute(self, sql):'
p260
sI712
S'        self.execute(sql)'
p261
sI713
S'        return self.cursor.fetchall()'
p262
sI714
S''
sI715
S'    def _select_aux(self, sql, fields, attributes, colnames):'
p263
sI716
S"        cache = attributes.get('cache', None)"
p264
ssg89
S'(self=<pydal.adapters.sqlite.SQLite object>, sql=\'SELECT "AddressUpdate"."id", "AddressUpdate"."Pa...Update" WHERE ("AddressUpdate"."id" IS NOT NULL);\')'
p265
sg91
S'_select_aux_execute'
p266
sa(dp267
g68
S'C:\\Users\\s8ewv6\\web2py\\gluon\\packages\\dal\\pydal\\adapters\\__init__.py'
p268
sg70
(dp269
S'kwargs'
p270
g21
sS'args'
p271
S'(<pydal.adapters.sqlite.SQLite object>, \'SELECT "AddressUpdate"."id", "AddressUpdate"."Pa...Update" WHERE ("AddressUpdate"."id" IS NOT NULL);\')'
p272
sS'f'
S'<function execute>'
p273
ssg76
I67
sg77
(dp274
I64
S'            if len(args) > 1:'
p275
sI65
S'                raise ValueError(args[1])'
p276
sI66
S"            raise RuntimeError('no connection available')"
p277
sI67
S'        return f(*args, **kwargs)'
p278
sI68
S'    return wrap'
p279
sI69
S''
sI70
S''
sI71
S'from .base import SQLAdapter, NoSQLAdapter'
p280
sI62
S'    def wrap(*args, **kwargs):'
p281
sI63
S'        if not args[0].connection:'
p282
ssg89
S'(*args=(<pydal.adapters.sqlite.SQLite object>, \'SELECT "AddressUpdate"."id", "AddressUpdate"."Pa...Update" WHERE ("AddressUpdate"."id" IS NOT NULL);\'), **kwargs={})'
p283
sg91
S'wrap'
p284
sa(dp285
g68
S'C:\\Users\\s8ewv6\\web2py\\gluon\\packages\\dal\\pydal\\adapters\\base.py'
p286
sg70
(dp287
S'rv'
p288
g113
sS'self'
p289
S'<pydal.adapters.sqlite.SQLite object>'
p290
sS'args'
p291
S'(\'SELECT "AddressUpdate"."id", "AddressUpdate"."Pa...Update" WHERE ("AddressUpdate"."id" IS NOT NULL);\',)'
p292
sS'self.cursor'
p293
S'<sqlite3.Cursor object>'
p294
sS'command'
p295
S'\'SELECT "AddressUpdate"."id", "AddressUpdate"."Pa...Update" WHERE ("AddressUpdate"."id" IS NOT NULL);\''
p296
sS'self.cursor.execute'
p297
S'<built-in method execute of sqlite3.Cursor object>'
p298
sS'kwargs'
p299
g21
ssg76
I412
sg77
(dp300
I416
S''
sI407
S'    def execute(self, *args, **kwargs):'
p301
sI408
S'        command = self.filter_sql_command(args[0])'
p302
sI409
S'        handlers = self._build_handlers_for_execution()'
p303
sI410
S'        for handler in handlers:'
p304
sI411
S'            handler.before_execute(command)'
p305
sI412
S'        rv = self.cursor.execute(command, *args[1:], **kwargs)'
p306
sI413
S'        for handler in handlers:'
p307
sI414
S'            handler.after_execute(command)'
p308
sI415
S'        return rv'
p309
ssg89
S'(self=<pydal.adapters.sqlite.SQLite object>, *args=(\'SELECT "AddressUpdate"."id", "AddressUpdate"."Pa...Update" WHERE ("AddressUpdate"."id" IS NOT NULL);\',), **kwargs={})'
p310
sg91
S'execute'
p311
sasS'pyver'
p312
S'Python 2.7.13: C:\\Python27\\python.exe (prefix: C:\\Python27)'
p313
sS'session'
p314
g63
(S's\xe5\x08\x00\x00<div><table><tr><td style="font-weight:bold;vertical-align:top;">auth</td><td style="vertical-align:top;">:</td><td><div><table><tr><td style="font-weight:bold;vertical-align:top;">expiration</td><td style="vertical-align:top;">:</td><td><div>3600</div></td></tr><tr><td style="font-weight:bold;vertical-align:top;">hmac_key</td><td style="vertical-align:top;">:</td><td><div>0db11d04-1ed0-45b9-b224-aa16f5b1fdb6</div></td></tr><tr><td style="font-weight:bold;vertical-align:top;">last_visit</td><td style="vertical-align:top;">:</td><td><div>datetime.datetime(2017, 11, 15, 18, 29, 58, 111000)</div></td></tr><tr><td style="font-weight:bold;vertical-align:top;">remember_me</td><td style="vertical-align:top;">:</td><td><div>False</div></td></tr><tr><td style="font-weight:bold;vertical-align:top;">user</td><td style="vertical-align:top;">:</td><td><div><table><tr><td style="font-weight:bold;vertical-align:top;">email</td><td style="vertical-align:top;">:</td><td><div>ne1@uscolo.edu</div></td></tr><tr><td style="font-weight:bold;vertical-align:top;">first_name</td><td style="vertical-align:top;">:</td><td><div>Hans</div></td></tr><tr><td style="font-weight:bold;vertical-align:top;">id</td><td style="vertical-align:top;">:</td><td><div>1L</div></td></tr><tr><td style="font-weight:bold;vertical-align:top;">last_name</td><td style="vertical-align:top;">:</td><td><div>Wurst</div></td></tr><tr><td style="font-weight:bold;vertical-align:top;">registration_id</td><td style="vertical-align:top;">:</td><td><div></div></td></tr><tr><td style="font-weight:bold;vertical-align:top;">registration_key</td><td style="vertical-align:top;">:</td><td><div></div></td></tr><tr><td style="font-weight:bold;vertical-align:top;">reset_password_key</td><td style="vertical-align:top;">:</td><td><div></div></td></tr></table></div></td></tr><tr><td style="font-weight:bold;vertical-align:top;">user_groups</td><td style="vertical-align:top;">:</td><td><div><table><tr><td style="font-weight:bold;vertical-align:top;">1</td><td style="vertical-align:top;">:</td><td><div>user_1</div></td></tr></table></div></td></tr></table></div></td></tr><tr><td style="font-weight:bold;vertical-align:top;">flash</td><td style="vertical-align:top;">:</td><td><div>None</div></td></tr></table></div>'
tRp315
sS'etype'
p316
S"<class 'sqlite3.OperationalError'>"
p317
sS'date'
p318
S'Wed Nov 15 18:32:22 2017'
p319
sS'response'
p320
g63
(S's|\x1e\x00\x00<div><table><tr><td style="font-weight:bold;vertical-align:top;">body</td><td style="vertical-align:top;">:</td><td><div>&lt;cStringIO.StringO object at 0x000000000B4B1F10&gt;</div></td></tr><tr><td style="font-weight:bold;vertical-align:top;">cookies</td><td style="vertical-align:top;">:</td><td><div><table><tr><td style="font-weight:bold;vertical-align:top;">session_id_housebook</td><td style="vertical-align:top;">:</td><td><div>127.0.0.1-67b75b55-8a88-42fa-b2ad-f84c467a4d98<table><tr><td style="font-weight:bold;vertical-align:top;">comment</td><td style="vertical-align:top;">:</td><td><div></div></td></tr><tr><td style="font-weight:bold;vertical-align:top;">domain</td><td style="vertical-align:top;">:</td><td><div></div></td></tr><tr><td style="font-weight:bold;vertical-align:top;">expires</td><td style="vertical-align:top;">:</td><td><div></div></td></tr><tr><td style="font-weight:bold;vertical-align:top;">httponly</td><td style="vertical-align:top;">:</td><td><div></div></td></tr><tr><td style="font-weight:bold;vertical-align:top;">max-age</td><td style="vertical-align:top;">:</td><td><div></div></td></tr><tr><td style="font-weight:bold;vertical-align:top;">path</td><td style="vertical-align:top;">:</td><td><div>/</div></td></tr><tr><td style="font-weight:bold;vertical-align:top;">secure</td><td style="vertical-align:top;">:</td><td><div></div></td></tr><tr><td style="font-weight:bold;vertical-align:top;">version</td><td style="vertical-align:top;">:</td><td><div></div></td></tr></table></div></td></tr></table></div></td></tr><tr><td style="font-weight:bold;vertical-align:top;">delimiters</td><td style="vertical-align:top;">:</td><td><div><table><tr><td><div>{{</div></td></tr><tr><td><div>}}</div></td></tr></table></div></td></tr><tr><td style="font-weight:bold;vertical-align:top;">files</td><td style="vertical-align:top;">:</td><td><div><table></table></div></td></tr><tr><td style="font-weight:bold;vertical-align:top;">flash</td><td style="vertical-align:top;">:</td><td><div></div></td></tr><tr><td style="font-weight:bold;vertical-align:top;">form_label_separator</td><td style="vertical-align:top;">:</td><td><div></div></td></tr><tr><td style="font-weight:bold;vertical-align:top;">formstyle</td><td style="vertical-align:top;">:</td><td><div>bootstrap3_inline</div></td></tr><tr><td style="font-weight:bold;vertical-align:top;">generic_patterns</td><td style="vertical-align:top;">:</td><td><div><table><tr><td><div>*</div></td></tr></table></div></td></tr><tr><td style="font-weight:bold;vertical-align:top;">google_analytics_id</td><td style="vertical-align:top;">:</td><td><div>None</div></td></tr><tr><td style="font-weight:bold;vertical-align:top;">headers</td><td style="vertical-align:top;">:</td><td><div><table><tr><td style="font-weight:bold;vertical-align:top;">X-Powered-By</td><td style="vertical-align:top;">:</td><td><div>web2py</div></td></tr></table></div></td></tr><tr><td style="font-weight:bold;vertical-align:top;">logo</td><td style="vertical-align:top;">:</td><td><div><a class="navbar-brand" href="http://www.web2py.com/" id="web2py-logo"><b>web<span>2</span>py</b>&trade;&nbsp;</a></div></td></tr><tr><td style="font-weight:bold;vertical-align:top;">menu</td><td style="vertical-align:top;">:</td><td><div><table><tr><td><div><table><tr><td><div>Home</div></td></tr><tr><td><div>False</div></td></tr><tr><td><div>/HouseBook/default/index</div></td></tr><tr><td><div><table></table></div></td></tr></table></div></td></tr><tr><td><div><table><tr><td><div>Address Update</div></td></tr><tr><td><div>False</div></td></tr><tr><td><div>/HouseBook/address/index</div></td></tr><tr><td><div><table></table></div></td></tr></table></div></td></tr></table></div></td></tr><tr><td style="font-weight:bold;vertical-align:top;">meta</td><td style="vertical-align:top;">:</td><td><div><table><tr><td style="font-weight:bold;vertical-align:top;">author</td><td style="vertical-align:top;">:</td><td><div>Your Name &lt;you@example.com&gt;</div></td></tr><tr><td style="font-weight:bold;vertical-align:top;">description</td><td style="vertical-align:top;">:</td><td><div>a cool new app</div></td></tr><tr><td style="font-weight:bold;vertical-align:top;">generator</td><td style="vertical-align:top;">:</td><td><div>Web2py Web Framework</div></td></tr><tr><td style="font-weight:bold;vertical-align:top;">keywords</td><td style="vertical-align:top;">:</td><td><div><table><tr><td><div>web2py</div></td></tr><tr><td><div>python</div></td></tr><tr><td><div>framework</div></td></tr></table></div></td></tr></table></div></td></tr><tr><td style="font-weight:bold;vertical-align:top;">models_to_run</td><td style="vertical-align:top;">:</td><td><div><table><tr><td><div>^\\w+\\.py$</div></td></tr><tr><td><div>^address/\\w+\\.py$</div></td></tr><tr><td><div>^address/index/\\w+\\.py$</div></td></tr></table></div></td></tr><tr><td style="font-weight:bold;vertical-align:top;">postprocessing</td><td style="vertical-align:top;">:</td><td><div><table></table></div></td></tr><tr><td style="font-weight:bold;vertical-align:top;">session_client</td><td style="vertical-align:top;">:</td><td><div>127.0.0.1</div></td></tr><tr><td style="font-weight:bold;vertical-align:top;">session_cookie_compression_level</td><td style="vertical-align:top;">:</td><td><div>None</div></td></tr><tr><td style="font-weight:bold;vertical-align:top;">session_cookie_expires</td><td style="vertical-align:top;">:</td><td><div>None</div></td></tr><tr><td style="font-weight:bold;vertical-align:top;">session_data_name</td><td style="vertical-align:top;">:</td><td><div>session_data_housebook</div></td></tr><tr><td style="font-weight:bold;vertical-align:top;">session_file</td><td style="vertical-align:top;">:</td><td><div>&lt;open file &#x27;C:\\\\Users\\\\s8ewv6\\\\web2py\\\\applications\\\\HouseBook\\\\sessions\\\\1f8\\\\0f3\\\\127.0.0.1-67b75b55-8a88-42fa-b2ad-f84c467a4d98&#x27;, mode &#x27;rb+&#x27; at 0x000000000B23DF60&gt;</div></td></tr><tr><td style="font-weight:bold;vertical-align:top;">session_filename</td><td style="vertical-align:top;">:</td><td><div>C:\\Users\\s8ewv6\\web2py\\applications\\HouseBook\\sessions\\127.0.0.1-67b75b55-8a88-42fa-b2ad-f84c467a4d98</div></td></tr><tr><td style="font-weight:bold;vertical-align:top;">session_hash</td><td style="vertical-align:top;">:</td><td><div>289fc97f7a79ad9a95dd708c60898d9c</div></td></tr><tr><td style="font-weight:bold;vertical-align:top;">session_id</td><td style="vertical-align:top;">:</td><td><div>127.0.0.1-67b75b55-8a88-42fa-b2ad-f84c467a4d98</div></td></tr><tr><td style="font-weight:bold;vertical-align:top;">session_id_name</td><td style="vertical-align:top;">:</td><td><div>session_id_housebook</div></td></tr><tr><td style="font-weight:bold;vertical-align:top;">session_locked</td><td style="vertical-align:top;">:</td><td><div>True</div></td></tr><tr><td style="font-weight:bold;vertical-align:top;">session_masterapp</td><td style="vertical-align:top;">:</td><td><div>HouseBook</div></td></tr><tr><td style="font-weight:bold;vertical-align:top;">session_new</td><td style="vertical-align:top;">:</td><td><div>False</div></td></tr><tr><td style="font-weight:bold;vertical-align:top;">session_storage_type</td><td style="vertical-align:top;">:</td><td><div>file</div></td></tr><tr><td style="font-weight:bold;vertical-align:top;">status</td><td style="vertical-align:top;">:</td><td><div>200</div></td></tr><tr><td style="font-weight:bold;vertical-align:top;">subtitle</td><td style="vertical-align:top;">:</td><td><div></div></td></tr><tr><td style="font-weight:bold;vertical-align:top;">title</td><td style="vertical-align:top;">:</td><td><div>Housebook</div></td></tr><tr><td style="font-weight:bold;vertical-align:top;">view</td><td style="vertical-align:top;">:</td><td><div>address/index.html</div></td></tr></table></div>'
tRp321
sS'locals'
p322
(dp323
S'handlers'
p324
S'[<pydal.helpers.classes.TimingHandler object>]'
p325
sS'self'
p326
S'<pydal.adapters.sqlite.SQLite object>'
p327
sg48
S'(\'SELECT "AddressUpdate"."id", "AddressUpdate"."Pa...Update" WHERE ("AddressUpdate"."id" IS NOT NULL);\',)'
p328
sS'handler'
p329
S'<pydal.helpers.classes.TimingHandler object>'
p330
sS'command'
p331
S'\'SELECT "AddressUpdate"."id", "AddressUpdate"."Pa...Update" WHERE ("AddressUpdate"."id" IS NOT NULL);\''
p332
sS'kwargs'
p333
g21
sssS'traceback'
p334
S'Traceback (most recent call last):\n  File "C:\\Users\\s8ewv6\\web2py\\gluon\\restricted.py", line 219, in restricted\n    exec(ccode, environment)\n  File "C:\\Users\\s8ewv6\\web2py\\applications\\HouseBook\\controllers/address.py", line 21, in <module>\n  File "C:\\Users\\s8ewv6\\web2py\\gluon\\globals.py", line 414, in <lambda>\n    self._caller = lambda f: f()\n  File "C:\\Users\\s8ewv6\\web2py\\applications\\HouseBook\\controllers/address.py", line 4, in index\n    worklist = db(db.AddressUpdate).select()\n  File "C:\\Users\\s8ewv6\\web2py\\gluon\\packages\\dal\\pydal\\objects.py", line 2211, in select\n    return adapter.select(self.query, fields, attributes)\n  File "C:\\Users\\s8ewv6\\web2py\\gluon\\packages\\dal\\pydal\\adapters\\sqlite.py", line 82, in select\n    return super(SQLite, self).select(query, fields, attributes)\n  File "C:\\Users\\s8ewv6\\web2py\\gluon\\packages\\dal\\pydal\\adapters\\base.py", line 762, in select\n    return self._select_aux(sql, fields, attributes, colnames)\n  File "C:\\Users\\s8ewv6\\web2py\\gluon\\packages\\dal\\pydal\\adapters\\base.py", line 718, in _select_aux\n    rows = self._select_aux_execute(sql)\n  File "C:\\Users\\s8ewv6\\web2py\\gluon\\packages\\dal\\pydal\\adapters\\base.py", line 712, in _select_aux_execute\n    self.execute(sql)\n  File "C:\\Users\\s8ewv6\\web2py\\gluon\\packages\\dal\\pydal\\adapters\\__init__.py", line 67, in wrap\n    return f(*args, **kwargs)\n  File "C:\\Users\\s8ewv6\\web2py\\gluon\\packages\\dal\\pydal\\adapters\\base.py", line 412, in execute\n    rv = self.cursor.execute(command, *args[1:], **kwargs)\nOperationalError: no such table: AddressUpdate\n'
p335
s.