(dp1
S'output'
p2
S"<type 'exceptions.ValueError'> need more than 1 value to unpack"
p3
sS'layer'
p4
S'C:\\Users\\s8ewv6\\web2py\\applications\\HouseBook\\views\\default/index.html'
p5
sS'code'
p6
S'response.write(\'<!-- \', escape=False)\nleft_sidebar_enabled,right_sidebar_enabled=False,(\'message\' in globals())\nresponse.write(\'   -->\\r\\n\', escape=False)\nresponse.write(\'<!DOCTYPE html>\\n<!--[if (gt IE 9)|!(IE)]><!--> <html class="no-js" lang="\', escape=False)\nresponse.write(T.accepted_language or \'en\')\nresponse.write(\'"> <!--<![endif]-->\\n  <head>\\n    <meta charset="utf-8">\\n    <!-- www.phpied.com/conditional-comments-block-downloads/ -->\\n    <!-- Always force latest IE rendering engine\\n         (even in intranet) & Chrome Frame\\n         Remove this if you use the .htaccess -->\\n    <meta http-equiv="X-UA-Compatible" content="IE=edge\', escape=False)\nresponse.write(not request.is_local and \',chrome=1\' or \'\')\nresponse.write(\'">\\n    <!--  Mobile Viewport Fix\\n          j.mp/mobileviewport & davidbcalhoun.com/2010/viewport-metatag\\n          device-width: Occupy full width of the screen in its current orientation\\n          initial-scale = 1.0 retains dimensions instead of zooming out if page height > device height\\n          user-scalable = yes allows the user to zoom in -->\\n    <meta name="viewport" content="width=device-width, initial-scale=1.0">\\n    <title>\', escape=False)\nresponse.write(response.title or request.application)\nresponse.write(\'</title>\\n    <!-- http://dev.w3.org/html5/markup/meta.name.html -->\\n    <meta name="application-name" content="\', escape=False)\nresponse.write(request.application)\nresponse.write(\'">\\n    <!-- Speaking of Google, don\\\'t forget to set your site up:\\n         http://google.com/webmasters -->\\n    <meta name="google-site-verification" content="">\\n    <!-- include stylesheets -->\\n    <link rel="stylesheet" href="\', escape=False)\nresponse.write(URL(\'static\',\'css/bootstrap.min.css\'))\nresponse.write(\'"/>\\n    <link rel="stylesheet" href="\', escape=False)\nresponse.write(URL(\'static\',\'css/web2py-bootstrap3.css\'))\nresponse.write(\'"/>\\n    <link rel="shortcut icon" href="\', escape=False)\nresponse.write(URL(\'static\',\'images/favicon.ico\'))\nresponse.write(\'" type="image/x-icon">\\n    <link rel="apple-touch-icon" href="\', escape=False)\nresponse.write(URL(\'static\',\'images/favicon.png\'))\nresponse.write(\'">\\n    <!-- All JavaScript at the bottom, except for Modernizr which enables\\n         HTML5 elements & feature detects -->\\n    <script src="\', escape=False)\nresponse.write(URL(\'static\',\'js/modernizr-2.8.3.min.js\'))\nresponse.write(\'"></script>\\n    <!--[if lt IE 9]>\\n        <script src="\', escape=False)\nresponse.write(URL(\'static\',\'js/respond-1.4.2.min.js\'))\nresponse.write(\'"></script>\\n        <![endif]-->\\n    <!-- Favicons -->\\n    \', escape=False)\nresponse.write(\'<script type="text/javascript"><!--\\n    // These variables are used by the web2py_ajax_init function in web2py_ajax.js (which is loaded below).\\n    \', escape=False)\nresponse.write(ASSIGNJS(\nw2p_ajax_confirm_message = T(\'Are you sure you want to delete this object?\'),\nw2p_ajax_disable_with_message = T(\'Working...\'),\nw2p_ajax_date_format = T(\'%Y-%m-%d\'),\nw2p_ajax_datetime_format = T(\'%Y-%m-%d %H:%M:%S\'),\najax_error_500 = T.M(\'An error occured, please [[reload %s]] the page\') % URL(args=request.args, vars=request.get_vars)\n))\nresponse.write(\'\\n    //--></script>\\n\', escape=False)\nresponse.files.insert(0,URL(\'static\',\'js/jquery.js\'))\nresponse.files.insert(1,URL(\'static\',\'css/calendar.css\'))\nresponse.files.insert(2,URL(\'static\',\'js/calendar.js\'))\nresponse.files.insert(3,URL(\'static\',\'js/web2py.js\'))\nresponse.include_meta()\nresponse.include_files()\nresponse.write(\'\\n\', escape=False)\nresponse.write(\' <!-- this includes jquery.js, calendar.js/.css and web2py.js -->\\n    \', escape=False)\nresponse.write(\'\\n    \', escape=False)\n# using sidebars need to know what sidebar you want to use\nmc0 = \'col-md-12\'\nmc1 = \'col-md-9\'\nmc2 = \'col-md-6\'\nleft_sidebar_enabled = globals().get(\'left_sidebar_enabled\', False)\nright_sidebar_enabled = globals().get(\'right_sidebar_enabled\', False)\nmiddle_column = {0: mc0, 1: mc1, 2: mc2}[\n(left_sidebar_enabled and 1 or 0)+(right_sidebar_enabled and 1 or 0)]\nresponse.write(\'\\n  </head>\\n  <body>\\n    <!--[if lt IE 8]><p class="browserupgrade">You are using an <strong>outdated</strong> browser. Please <a href="http://browsehappy.com/">upgrade your browser</a> to improve your experience.</p><![endif]-->\\n    <div class="w2p_flash alert alert-dismissable">\', escape=False)\nresponse.write(response.flash or \'\')\nresponse.write(\'</div>\\n    <!-- Navbar ======================================= -->\\n    <nav class="navbar navbar-default navbar-fixed-top" role="navigation">\\n      <div class="container-fluid">\\n        <div class="navbar-header">\\n          <button type="button" class="navbar-toggle" data-toggle="collapse" data-target=".navbar-collapse">\\n            <span class="sr-only">Toggle navigation</span>\\n            <span class="icon-bar"></span>\\n            <span class="icon-bar"></span>\\n            <span class="icon-bar"></span>\\n          </button>\\n          \', escape=False)\nresponse.write(response.logo or \'\')\nresponse.write(\'\\n        </div>\\n        <div class="collapse navbar-collapse">\\n          <ul class="nav navbar-nav navbar-right">\\n            \', escape=False)\nresponse.write(\'auth\' in globals() and auth.navbar(\'Welcome\',mode=\'dropdown\') or \'\')\nresponse.write(\'\\n          </ul>\\n          \', escape=False)\nif response.menu:\n    response.write(\'\\n          \', escape=False)\n    response.write(MENU(response.menu, _class=\'nav navbar-nav\',li_class=\'dropdown\',ul_class=\'dropdown-menu\'))\n    response.write(\'\\n          \', escape=False)\n    pass\nresponse.write(\'\\n        </div>\\n      </div>\\n    </nav>\\n    <!-- Masthead ===================================== -->    \\n    \', escape=False)\nresponse.write(\'\\r\\n    <header class="container-fluid background">\\r\\n      <div class="jumbotron text-center">\\r\\n        \', escape=False)\nif response.title:\n    response.write(\'\\r\\n        <h1>\', escape=False)\n    response.write(response.title)\n    response.write(\'\\r\\n          <small>\', escape=False)\n    response.write(response.subtitle or \'\')\n    response.write(\'</small></h1>\\r\\n        \', escape=False)\n    pass\nresponse.write(\'\\r\\n      </div>\\r\\n    </header>\\r\\n\', escape=False)\nresponse.write(\'\\n    <!-- Main ========================================= -->\\n    <!-- Begin page content -->\\n    <div class="container-fluid main-container">\\n      \', escape=False)\nif left_sidebar_enabled:\n    response.write(\'\\n        <div class="col-md-3 left-sidebar">\\n            \', escape=False)\n    response.write(\'\\n            <h3>Left Sidebar</h3>\\n            <p></p>\\n            \', escape=False)\n    response.write(\'\\n        </div>\\n      \', escape=False)\n    pass\nresponse.write(\'\\n\\n      <div class="\', escape=False)\nresponse.write(middle_column)\nresponse.write(\'">\\n        \', escape=False)\nresponse.write(\'\\n        \', escape=False)\nresponse.write(\'\\r\\n\\r\\n\', escape=False)\nresponse.write(\'\\r\\n\\r\\n\', escape=False)\nif \'message\' in globals():\n    response.write(\'\\r\\n<h2>\', escape=False)\n    response.write(message)\n    response.write(\'</h2>\\r\\n<p class="lead">\', escape=False)\n    response.write(T(\'Your One-stop-shop\'))\n    response.write(\'</p>\\r\\n<ol>\\r\\n  <li>\', escape=False)\n    response.write(T(\'You are successfully running web2py\'))\n    response.write(\'</li>\\r\\n</ol>\\r\\n\', escape=False)\nelif \'content\' in globals():\n    response.write(\'\\r\\n\', escape=False)\n    response.write(content)\n    response.write(\'\\r\\n\', escape=False)\nelse:\n    response.write(\'\\r\\n\', escape=False)\n    response.write(BEAUTIFY(response._vars))\n    response.write(\'\\r\\n\', escape=False)\n    pass\nresponse.write(\'\\r\\n\\r\\n\', escape=False)\nresponse.write(\'\\r\\n\', escape=False)\nresponse.write(\'\\n        \', escape=False)\nresponse.write(\'\\n      </div>\\n\\n      \', escape=False)\nif right_sidebar_enabled:\n    response.write(\'\\n        <div class="col-md-3">\\n            \', escape=False)\n    response.write(\'\\r\\n<div class="panel panel-info">\\r\\n  <div class="panel-heading"><h3 class="panel-title"><a class="btn-block"\\r\\n      href="\', escape=False)\n    response.write(URL(\'admin\',\'default\',\'index\'))\n    response.write(\'">\\r\\n      <i class="glyphicon glyphicon-cog"></i>\\r\\n      \', escape=False)\n    response.write(T("admin"))\n    response.write(\'\\r\\n    </a></h3></div>\\r\\n  <div class="panel-body">\\r\\n    \', escape=False)\n    response.write(T("Useful links"))\n    response.write(\'\\r\\n  </div>\\r\\n  <ul class="list-group">\\r\\n    <li class="list-group-item">\', escape=False)\n    response.write(A(T("Online examples"), _href=URL(\'examples\',\'default\',\'index\')))\n    response.write(\'</li>\\r\\n    <li class="list-group-item"><a href="http://web2py.com">web2py.com</a></li>\\r\\n    <li class="list-group-item"><a href="http://web2py.com/book">\', escape=False)\n    response.write(T(\'Documentation\'))\n    response.write(\'</a></li>\\r\\n  </ul>\\r\\n</div>\\r\\n\', escape=False)\n    response.write(\'\\n        </div>\\n      \', escape=False)\n    pass\nresponse.write(\'\\n\\n    </div>\\n\\n    \', escape=False)\nresponse.write(\' <!-- this is default footer -->      \\n    <footer class="footer">\\n      <div class="container-fluid">\\n        <div class="copyright pull-left">\', escape=False)\nresponse.write(T(\'Copyright\'))\nresponse.write(\' &#169; \', escape=False)\nresponse.write(request.now.year)\nresponse.write(\'</div>\\n          <div id="poweredBy" class="pull-right">\\n            \', escape=False)\nresponse.write(T(\'Powered by\'))\nresponse.write(\'\\n            <a href="http://www.web2py.com/">web2py</a>\\n          </div>\\n      </div>\\n    </footer>\\n    \', escape=False)\nresponse.write(\'\\n    <!-- The javascript =============================== -->\\n    <script src="\', escape=False)\nresponse.write(URL(\'static\',\'js/bootstrap.min.js\'))\nresponse.write(\'"></script>\\n    <script src="\', escape=False)\nresponse.write(URL(\'static\',\'js/web2py-bootstrap3.js\'))\nresponse.write(\'"></script>\\n    \', escape=False)\nresponse.write(\'\\n    \', escape=False)\nif response.google_analytics_id:\n    response.write(\'\\n    <!-- Analytics ==================================== -->\\n    <script src="\', escape=False)\n    response.write(URL(\'static\',\'js/analytics.min.js\'))\n    response.write(\'"></script>\\n    <script type="text/javascript">\\n      analytics.initialize({\\n      \\\'Google Analytics\\\':{trackingId:\\\'\', escape=False)\n    response.write(response.google_analytics_id)\n    response.write("\'}\\n      });\\n    </script>\\n    ", escape=False)\n    pass\nresponse.write(\'\\n    <!-- Share ============================y============ -->\\n    <script src="\', escape=False)\nresponse.write(URL(\'static\',\'js/share.js\',vars=dict(static=URL(\'static\',\'images\'))))\nresponse.write(\'"></script>\\n  </body>\\n</html>\\n\', escape=False)'
p7
sS'snapshot'
p8
(dp9
S'exception'
p10
(dp11
S'__getslice__'
p12
S"<method-wrapper '__getslice__' of exceptions.ValueError object>"
p13
sS'__str__'
p14
S"<method-wrapper '__str__' of exceptions.ValueError object>"
p15
sS'__reduce__'
p16
S'<built-in method __reduce__ of exceptions.ValueError object>'
p17
sS'__dict__'
p18
S'{}'
p19
sS'message'
p20
S"'need more than 1 value to unpack'"
p21
sS'__sizeof__'
p22
S'<built-in method __sizeof__ of exceptions.ValueError object>'
p23
sS'__init__'
p24
S"<method-wrapper '__init__' of exceptions.ValueError object>"
p25
sS'__setattr__'
p26
S"<method-wrapper '__setattr__' of exceptions.ValueError object>"
p27
sS'__reduce_ex__'
p28
S'<built-in method __reduce_ex__ of exceptions.ValueError object>'
p29
sS'__new__'
p30
S'<built-in method __new__ of type object>'
p31
sS'__format__'
p32
S'<built-in method __format__ of exceptions.ValueError object>'
p33
sS'__class__'
p34
S"<type 'exceptions.ValueError'>"
p35
sS'__doc__'
p36
S"'Inappropriate argument value (of correct type).'"
p37
sS'__getitem__'
p38
S"<method-wrapper '__getitem__' of exceptions.ValueError object>"
p39
sS'__setstate__'
p40
S'<built-in method __setstate__ of exceptions.ValueError object>'
p41
sS'__getattribute__'
p42
S"<method-wrapper '__getattribute__' of exceptions.ValueError object>"
p43
sS'args'
p44
S"('need more than 1 value to unpack',)"
p45
sS'__subclasshook__'
p46
S'<built-in method __subclasshook__ of type object>'
p47
sS'__unicode__'
p48
S'<built-in method __unicode__ of exceptions.ValueError object>'
p49
sS'__delattr__'
p50
S"<method-wrapper '__delattr__' of exceptions.ValueError object>"
p51
sS'__repr__'
p52
S"<method-wrapper '__repr__' of exceptions.ValueError object>"
p53
sS'__hash__'
p54
S"<method-wrapper '__hash__' of exceptions.ValueError object>"
p55
ssS'evalue'
p56
S'need more than 1 value to unpack'
p57
sS'request'
p58
cgluon.html
XML_unpickle
p59
(S's7R\x00\x00<div><table><tr><td style="font-weight:bold;vertical-align:top;">ajax</td><td style="vertical-align:top;">:</td><td><div>False</div></td></tr><tr><td style="font-weight:bold;vertical-align:top;">application</td><td style="vertical-align:top;">:</td><td><div>HouseBook</div></td></tr><tr><td style="font-weight:bold;vertical-align:top;">args</td><td style="vertical-align:top;">:</td><td><div><table></table></div></td></tr><tr><td style="font-weight:bold;vertical-align:top;">cid</td><td style="vertical-align:top;">:</td><td><div>None</div></td></tr><tr><td style="font-weight:bold;vertical-align:top;">client</td><td style="vertical-align:top;">:</td><td><div>127.0.0.1</div></td></tr><tr><td style="font-weight:bold;vertical-align:top;">controller</td><td style="vertical-align:top;">:</td><td><div>default</div></td></tr><tr><td style="font-weight:bold;vertical-align:top;">cookies</td><td style="vertical-align:top;">:</td><td><div><table><tr><td style="font-weight:bold;vertical-align:top;">session_id_housebook</td><td style="vertical-align:top;">:</td><td><div>127.0.0.1-b746cd2c-175b-4472-92d2-f65544a2ddaa<table><tr><td style="font-weight:bold;vertical-align:top;">comment</td><td style="vertical-align:top;">:</td><td><div></div></td></tr><tr><td style="font-weight:bold;vertical-align:top;">domain</td><td style="vertical-align:top;">:</td><td><div></div></td></tr><tr><td style="font-weight:bold;vertical-align:top;">expires</td><td style="vertical-align:top;">:</td><td><div></div></td></tr><tr><td style="font-weight:bold;vertical-align:top;">httponly</td><td style="vertical-align:top;">:</td><td><div></div></td></tr><tr><td style="font-weight:bold;vertical-align:top;">max-age</td><td style="vertical-align:top;">:</td><td><div></div></td></tr><tr><td style="font-weight:bold;vertical-align:top;">path</td><td style="vertical-align:top;">:</td><td><div></div></td></tr><tr><td style="font-weight:bold;vertical-align:top;">secure</td><td style="vertical-align:top;">:</td><td><div></div></td></tr><tr><td style="font-weight:bold;vertical-align:top;">version</td><td style="vertical-align:top;">:</td><td><div></div></td></tr></table></div></td></tr></table></div></td></tr><tr><td style="font-weight:bold;vertical-align:top;">env</td><td style="vertical-align:top;">:</td><td><div><table><tr><td style="font-weight:bold;vertical-align:top;">HTTP_ACCEPT</td><td style="vertical-align:top;">:</td><td><div>text/html,application/xhtml+xml,application/xml;q=0.9,*/*;q=0.8</div></td></tr><tr><td style="font-weight:bold;vertical-align:top;">HTTP_ACCEPT_ENCODING</td><td style="vertical-align:top;">:</td><td><div>gzip, deflate</div></td></tr><tr><td style="font-weight:bold;vertical-align:top;">HTTP_ACCEPT_LANGUAGE</td><td style="vertical-align:top;">:</td><td><div>en-US,en;q=0.5</div></td></tr><tr><td style="font-weight:bold;vertical-align:top;">HTTP_CACHE_CONTROL</td><td style="vertical-align:top;">:</td><td><div>max-age=0</div></td></tr><tr><td style="font-weight:bold;vertical-align:top;">HTTP_CONNECTION</td><td style="vertical-align:top;">:</td><td><div>keep-alive</div></td></tr><tr><td style="font-weight:bold;vertical-align:top;">HTTP_COOKIE</td><td style="vertical-align:top;">:</td><td><div>session_id_housebook=127.0.0.1-b746cd2c-175b-4472-92d2-f65544a2ddaa</div></td></tr><tr><td style="font-weight:bold;vertical-align:top;">HTTP_DNT</td><td style="vertical-align:top;">:</td><td><div>1</div></td></tr><tr><td style="font-weight:bold;vertical-align:top;">HTTP_HOST</td><td style="vertical-align:top;">:</td><td><div>127.0.0.1:8000</div></td></tr><tr><td style="font-weight:bold;vertical-align:top;">HTTP_UPGRADE_INSECURE_REQUESTS</td><td style="vertical-align:top;">:</td><td><div>1</div></td></tr><tr><td style="font-weight:bold;vertical-align:top;">HTTP_USER_AGENT</td><td style="vertical-align:top;">:</td><td><div>Mozilla/5.0 (Windows NT 6.1; WOW64; rv:52.0) Gecko/20100101 Firefox/52.0</div></td></tr><tr><td style="font-weight:bold;vertical-align:top;">PATH_INFO</td><td style="vertical-align:top;">:</td><td><div>/HouseBook</div></td></tr><tr><td style="font-weight:bold;vertical-align:top;">QUERY_STRING</td><td style="vertical-align:top;">:</td><td><div></div></td></tr><tr><td style="font-weight:bold;vertical-align:top;">REMOTE_ADDR</td><td style="vertical-align:top;">:</td><td><div>127.0.0.1</div></td></tr><tr><td style="font-weight:bold;vertical-align:top;">REMOTE_PORT</td><td style="vertical-align:top;">:</td><td><div>64989</div></td></tr><tr><td style="font-weight:bold;vertical-align:top;">REQUEST_METHOD</td><td style="vertical-align:top;">:</td><td><div>GET</div></td></tr><tr><td style="font-weight:bold;vertical-align:top;">SCRIPT_NAME</td><td style="vertical-align:top;">:</td><td><div></div></td></tr><tr><td style="font-weight:bold;vertical-align:top;">SERVER_NAME</td><td style="vertical-align:top;">:</td><td><div>CHR5BF89</div></td></tr><tr><td style="font-weight:bold;vertical-align:top;">SERVER_PORT</td><td style="vertical-align:top;">:</td><td><div>8000</div></td></tr><tr><td style="font-weight:bold;vertical-align:top;">SERVER_PROTOCOL</td><td style="vertical-align:top;">:</td><td><div>HTTP/1.1</div></td></tr><tr><td style="font-weight:bold;vertical-align:top;">SERVER_SOFTWARE</td><td style="vertical-align:top;">:</td><td><div>Rocket 1.2.6</div></td></tr><tr><td style="font-weight:bold;vertical-align:top;">app_folders</td><td style="vertical-align:top;">:</td><td><div>set([&#x27;C:\\\\Users\\\\s8ewv6\\\\web2py\\\\applications\\\\HouseBook\\\\&#x27;, &#x27;C:\\\\Users\\\\s8ewv6\\\\web2py\\\\applications\\\\welcome\\\\&#x27;, &#x27;C:\\\\Users\\\\s8ewv6\\\\web2py\\\\applications\\\\admin\\\\&#x27;])</div></td></tr><tr><td style="font-weight:bold;vertical-align:top;">applications_parent</td><td style="vertical-align:top;">:</td><td><div>C:\\Users\\s8ewv6\\web2py</div></td></tr><tr><td style="font-weight:bold;vertical-align:top;">cmd_args</td><td style="vertical-align:top;">:</td><td><div><table></table></div></td></tr><tr><td style="font-weight:bold;vertical-align:top;">cmd_options</td><td style="vertical-align:top;">:</td><td><div>&lt;Values at 0x3c7c748: {&#x27;verbose&#x27;: False, &#x27;ip&#x27;: &#x27;127.0.0.1&#x27;, &#x27;debuglevel&#x27;: 30, &#x27;with_scheduler&#x27;: False, &#x27;shutdown_timeout&#x27;: 5, &#x27;taskbar&#x27;: False, &#x27;with_coverage&#x27;: False, &#x27;pid_filename&#x27;: &#x27;httpserver.pid&#x27;, &#x27;maxthreads&#x27;: None, &#x27;softcron&#x27;: False, &#x27;server_name&#x27;: &#x27;CHR5BF89&#x27;, &#x27;bpython&#x27;: False, &#x27;nogui&#x27;: False, &#x27;port&#x27;: 8000, &#x27;print_errors&#x27;: False, &#x27;extcron&#x27;: False, &#x27;runcron&#x27;: False, &#x27;run_system_tests&#x27;: False, &#x27;test&#x27;: None, &#x27;folder&#x27;: &#x27;C:\\\\Users\\\\s8ewv6\\\\web2py&#x27;, &#x27;config&#x27;: &#x27;&#x27;, &#x27;minthreads&#x27;: None, &#x27;shell&#x27;: None, &#x27;run&#x27;: &#x27;&#x27;, &#x27;log_filename&#x27;: &#x27;httpserver.log&#x27;, &#x27;profiler_dir&#x27;: None, &#x27;args&#x27;: [&#x27;&#x27;], &#x27;socket_timeout&#x27;: 5, &#x27;ssl_ca_certificate&#x27;: None, &#x27;scheduler&#x27;: None, &#x27;interfaces&#x27;: None, &#x27;ssl_private_key&#x27;: &#x27;&#x27;, &#x27;gae&#x27;: None, &#x27;password&#x27;: &#x27;******&#x27;, &#x27;request_queue_size&#x27;: 5, &#x27;ssl_certificate&#x27;: &#x27;&#x27;, &#x27;cronjob&#x27;: False, &#x27;numthreads&#x27;: None, &#x27;quiet&#x27;: False, &#x27;import_models&#x27;: False, &#x27;timeout&#x27;: 10, &#x27;plain&#x27;: False, &#x27;nobanner&#x27;: False}&gt;</div></td></tr><tr><td style="font-weight:bold;vertical-align:top;">db_sessions</td><td style="vertical-align:top;">:</td><td><div>set([])</div></td></tr><tr><td style="font-weight:bold;vertical-align:top;">debugging</td><td style="vertical-align:top;">:</td><td><div>True</div></td></tr><tr><td style="font-weight:bold;vertical-align:top;">gluon_parent</td><td style="vertical-align:top;">:</td><td><div>C:\\Users\\s8ewv6\\web2py</div></td></tr><tr><td style="font-weight:bold;vertical-align:top;">http_accept</td><td style="vertical-align:top;">:</td><td><div>text/html,application/xhtml+xml,application/xml;q=0.9,*/*;q=0.8</div></td></tr><tr><td style="font-weight:bold;vertical-align:top;">http_accept_encoding</td><td style="vertical-align:top;">:</td><td><div>gzip, deflate</div></td></tr><tr><td style="font-weight:bold;vertical-align:top;">http_accept_language</td><td style="vertical-align:top;">:</td><td><div>en-US,en;q=0.5</div></td></tr><tr><td style="font-weight:bold;vertical-align:top;">http_cache_control</td><td style="vertical-align:top;">:</td><td><div>max-age=0</div></td></tr><tr><td style="font-weight:bold;vertical-align:top;">http_connection</td><td style="vertical-align:top;">:</td><td><div>keep-alive</div></td></tr><tr><td style="font-weight:bold;vertical-align:top;">http_cookie</td><td style="vertical-align:top;">:</td><td><div>session_id_housebook=127.0.0.1-b746cd2c-175b-4472-92d2-f65544a2ddaa</div></td></tr><tr><td style="font-weight:bold;vertical-align:top;">http_dnt</td><td style="vertical-align:top;">:</td><td><div>1</div></td></tr><tr><td style="font-weight:bold;vertical-align:top;">http_host</td><td style="vertical-align:top;">:</td><td><div>127.0.0.1:8000</div></td></tr><tr><td style="font-weight:bold;vertical-align:top;">http_upgrade_insecure_requests</td><td style="vertical-align:top;">:</td><td><div>1</div></td></tr><tr><td style="font-weight:bold;vertical-align:top;">http_user_agent</td><td style="vertical-align:top;">:</td><td><div>Mozilla/5.0 (Windows NT 6.1; WOW64; rv:52.0) Gecko/20100101 Firefox/52.0</div></td></tr><tr><td style="font-weight:bold;vertical-align:top;">is_jython</td><td style="vertical-align:top;">:</td><td><div>False</div></td></tr><tr><td style="font-weight:bold;vertical-align:top;">is_py2</td><td style="vertical-align:top;">:</td><td><div>True</div></td></tr><tr><td style="font-weight:bold;vertical-align:top;">is_pypy</td><td style="vertical-align:top;">:</td><td><div>False</div></td></tr><tr><td style="font-weight:bold;vertical-align:top;">is_source</td><td style="vertical-align:top;">:</td><td><div>True</div></td></tr><tr><td style="font-weight:bold;vertical-align:top;">local_hosts</td><td style="vertical-align:top;">:</td><td><div><table><tr><td><div>::1</div></td></tr><tr><td><div>CHR5BF89.corp.gwpnet.com</div></td></tr><tr><td><div>::ffff:127.0.0.1</div></td></tr><tr><td><div>127.0.0.1</div></td></tr><tr><td><div>CHR5BF89</div></td></tr></table></div></td></tr><tr><td style="font-weight:bold;vertical-align:top;">path_info</td><td style="vertical-align:top;">:</td><td><div>/HouseBook</div></td></tr><tr><td style="font-weight:bold;vertical-align:top;">query_string</td><td style="vertical-align:top;">:</td><td><div></div></td></tr><tr><td style="font-weight:bold;vertical-align:top;">remote_addr</td><td style="vertical-align:top;">:</td><td><div>127.0.0.1</div></td></tr><tr><td style="font-weight:bold;vertical-align:top;">remote_port</td><td style="vertical-align:top;">:</td><td><div>64989</div></td></tr><tr><td style="font-weight:bold;vertical-align:top;">request_method</td><td style="vertical-align:top;">:</td><td><div>GET</div></td></tr><tr><td style="font-weight:bold;vertical-align:top;">request_uri</td><td style="vertical-align:top;">:</td><td><div>/HouseBook</div></td></tr><tr><td style="font-weight:bold;vertical-align:top;">script_name</td><td style="vertical-align:top;">:</td><td><div></div></td></tr><tr><td style="font-weight:bold;vertical-align:top;">server_name</td><td style="vertical-align:top;">:</td><td><div>CHR5BF89</div></td></tr><tr><td style="font-weight:bold;vertical-align:top;">server_port</td><td style="vertical-align:top;">:</td><td><div>8000</div></td></tr><tr><td style="font-weight:bold;vertical-align:top;">server_protocol</td><td style="vertical-align:top;">:</td><td><div>HTTP/1.1</div></td></tr><tr><td style="font-weight:bold;vertical-align:top;">server_software</td><td style="vertical-align:top;">:</td><td><div>Rocket 1.2.6</div></td></tr><tr><td style="font-weight:bold;vertical-align:top;">web2py_path</td><td style="vertical-align:top;">:</td><td><div>C:\\Users\\s8ewv6\\web2py</div></td></tr><tr><td style="font-weight:bold;vertical-align:top;">web2py_version</td><td style="vertical-align:top;">:</td><td><div>2.15.4-stable+timestamp.2017.09.02.04.02.22</div></td></tr><tr><td style="font-weight:bold;vertical-align:top;">wsgi.errors</td><td style="vertical-align:top;">:</td><td><div>&lt;open file &#x27;&lt;stderr&gt;&#x27;, mode &#x27;w&#x27; at 0x0000000001F32150&gt;</div></td></tr><tr><td style="font-weight:bold;vertical-align:top;">wsgi.file_wrapper</td><td style="vertical-align:top;">:</td><td><div>&lt;class wsgiref.util.FileWrapper at 0x0000000003BFC528&gt;</div></td></tr><tr><td style="font-weight:bold;vertical-align:top;">wsgi.input</td><td style="vertical-align:top;">:</td><td><div>&lt;socket._fileobject object at 0x000000000464EDE0&gt;</div></td></tr><tr><td style="font-weight:bold;vertical-align:top;">wsgi.multiprocess</td><td style="vertical-align:top;">:</td><td><div>False</div></td></tr><tr><td style="font-weight:bold;vertical-align:top;">wsgi.multithread</td><td style="vertical-align:top;">:</td><td><div>True</div></td></tr><tr><td style="font-weight:bold;vertical-align:top;">wsgi.run_once</td><td style="vertical-align:top;">:</td><td><div>False</div></td></tr><tr><td style="font-weight:bold;vertical-align:top;">wsgi.url_scheme</td><td style="vertical-align:top;">:</td><td><div>http</div></td></tr><tr><td style="font-weight:bold;vertical-align:top;">wsgi.version</td><td style="vertical-align:top;">:</td><td><div><table><tr><td><div>1</div></td></tr><tr><td><div>0</div></td></tr></table></div></td></tr><tr><td style="font-weight:bold;vertical-align:top;">wsgi_errors</td><td style="vertical-align:top;">:</td><td><div>&lt;open file &#x27;&lt;stderr&gt;&#x27;, mode &#x27;w&#x27; at 0x0000000001F32150&gt;</div></td></tr><tr><td style="font-weight:bold;vertical-align:top;">wsgi_file_wrapper</td><td style="vertical-align:top;">:</td><td><div>&lt;class wsgiref.util.FileWrapper at 0x0000000003BFC528&gt;</div></td></tr><tr><td style="font-weight:bold;vertical-align:top;">wsgi_input</td><td style="vertical-align:top;">:</td><td><div>&lt;socket._fileobject object at 0x000000000464EDE0&gt;</div></td></tr><tr><td style="font-weight:bold;vertical-align:top;">wsgi_multiprocess</td><td style="vertical-align:top;">:</td><td><div>False</div></td></tr><tr><td style="font-weight:bold;vertical-align:top;">wsgi_multithread</td><td style="vertical-align:top;">:</td><td><div>True</div></td></tr><tr><td style="font-weight:bold;vertical-align:top;">wsgi_run_once</td><td style="vertical-align:top;">:</td><td><div>False</div></td></tr><tr><td style="font-weight:bold;vertical-align:top;">wsgi_url_scheme</td><td style="vertical-align:top;">:</td><td><div>http</div></td></tr><tr><td style="font-weight:bold;vertical-align:top;">wsgi_version</td><td style="vertical-align:top;">:</td><td><div><table><tr><td><div>1</div></td></tr><tr><td><div>0</div></td></tr></table></div></td></tr></table></div></td></tr><tr><td style="font-weight:bold;vertical-align:top;">extension</td><td style="vertical-align:top;">:</td><td><div>html</div></td></tr><tr><td style="font-weight:bold;vertical-align:top;">folder</td><td style="vertical-align:top;">:</td><td><div>C:\\Users\\s8ewv6\\web2py\\applications\\HouseBook\\</div></td></tr><tr><td style="font-weight:bold;vertical-align:top;">function</td><td style="vertical-align:top;">:</td><td><div>index</div></td></tr><tr><td style="font-weight:bold;vertical-align:top;">global_settings</td><td style="vertical-align:top;">:</td><td><div><table><tr><td style="font-weight:bold;vertical-align:top;">app_folders</td><td style="vertical-align:top;">:</td><td><div>set([&#x27;C:\\\\Users\\\\s8ewv6\\\\web2py\\\\applications\\\\HouseBook\\\\&#x27;, &#x27;C:\\\\Users\\\\s8ewv6\\\\web2py\\\\applications\\\\welcome\\\\&#x27;, &#x27;C:\\\\Users\\\\s8ewv6\\\\web2py\\\\applications\\\\admin\\\\&#x27;])</div></td></tr><tr><td style="font-weight:bold;vertical-align:top;">applications_parent</td><td style="vertical-align:top;">:</td><td><div>C:\\Users\\s8ewv6\\web2py</div></td></tr><tr><td style="font-weight:bold;vertical-align:top;">cmd_args</td><td style="vertical-align:top;">:</td><td><div><table></table></div></td></tr><tr><td style="font-weight:bold;vertical-align:top;">cmd_options</td><td style="vertical-align:top;">:</td><td><div>&lt;Values at 0x3c7c748: {&#x27;verbose&#x27;: False, &#x27;ip&#x27;: &#x27;127.0.0.1&#x27;, &#x27;debuglevel&#x27;: 30, &#x27;with_scheduler&#x27;: False, &#x27;shutdown_timeout&#x27;: 5, &#x27;taskbar&#x27;: False, &#x27;with_coverage&#x27;: False, &#x27;pid_filename&#x27;: &#x27;httpserver.pid&#x27;, &#x27;maxthreads&#x27;: None, &#x27;softcron&#x27;: False, &#x27;server_name&#x27;: &#x27;CHR5BF89&#x27;, &#x27;bpython&#x27;: False, &#x27;nogui&#x27;: False, &#x27;port&#x27;: 8000, &#x27;print_errors&#x27;: False, &#x27;extcron&#x27;: False, &#x27;runcron&#x27;: False, &#x27;run_system_tests&#x27;: False, &#x27;test&#x27;: None, &#x27;folder&#x27;: &#x27;C:\\\\Users\\\\s8ewv6\\\\web2py&#x27;, &#x27;config&#x27;: &#x27;&#x27;, &#x27;minthreads&#x27;: None, &#x27;shell&#x27;: None, &#x27;run&#x27;: &#x27;&#x27;, &#x27;log_filename&#x27;: &#x27;httpserver.log&#x27;, &#x27;profiler_dir&#x27;: None, &#x27;args&#x27;: [&#x27;&#x27;], &#x27;socket_timeout&#x27;: 5, &#x27;ssl_ca_certificate&#x27;: None, &#x27;scheduler&#x27;: None, &#x27;interfaces&#x27;: None, &#x27;ssl_private_key&#x27;: &#x27;&#x27;, &#x27;gae&#x27;: None, &#x27;password&#x27;: &#x27;******&#x27;, &#x27;request_queue_size&#x27;: 5, &#x27;ssl_certificate&#x27;: &#x27;&#x27;, &#x27;cronjob&#x27;: False, &#x27;numthreads&#x27;: None, &#x27;quiet&#x27;: False, &#x27;import_models&#x27;: False, &#x27;timeout&#x27;: 10, &#x27;plain&#x27;: False, &#x27;nobanner&#x27;: False}&gt;</div></td></tr><tr><td style="font-weight:bold;vertical-align:top;">db_sessions</td><td style="vertical-align:top;">:</td><td><div>set([])</div></td></tr><tr><td style="font-weight:bold;vertical-align:top;">debugging</td><td style="vertical-align:top;">:</td><td><div>True</div></td></tr><tr><td style="font-weight:bold;vertical-align:top;">gluon_parent</td><td style="vertical-align:top;">:</td><td><div>C:\\Users\\s8ewv6\\web2py</div></td></tr><tr><td style="font-weight:bold;vertical-align:top;">is_jython</td><td style="vertical-align:top;">:</td><td><div>False</div></td></tr><tr><td style="font-weight:bold;vertical-align:top;">is_py2</td><td style="vertical-align:top;">:</td><td><div>True</div></td></tr><tr><td style="font-weight:bold;vertical-align:top;">is_pypy</td><td style="vertical-align:top;">:</td><td><div>False</div></td></tr><tr><td style="font-weight:bold;vertical-align:top;">is_source</td><td style="vertical-align:top;">:</td><td><div>True</div></td></tr><tr><td style="font-weight:bold;vertical-align:top;">local_hosts</td><td style="vertical-align:top;">:</td><td><div><table><tr><td><div>::1</div></td></tr><tr><td><div>CHR5BF89.corp.gwpnet.com</div></td></tr><tr><td><div>::ffff:127.0.0.1</div></td></tr><tr><td><div>127.0.0.1</div></td></tr><tr><td><div>CHR5BF89</div></td></tr></table></div></td></tr><tr><td style="font-weight:bold;vertical-align:top;">web2py_version</td><td style="vertical-align:top;">:</td><td><div>2.15.4-stable+timestamp.2017.09.02.04.02.22</div></td></tr></table></div></td></tr><tr><td style="font-weight:bold;vertical-align:top;">is_https</td><td style="vertical-align:top;">:</td><td><div>False</div></td></tr><tr><td style="font-weight:bold;vertical-align:top;">is_local</td><td style="vertical-align:top;">:</td><td><div>True</div></td></tr><tr><td style="font-weight:bold;vertical-align:top;">is_restful</td><td style="vertical-align:top;">:</td><td><div>False</div></td></tr><tr><td style="font-weight:bold;vertical-align:top;">is_scheduler</td><td style="vertical-align:top;">:</td><td><div>False</div></td></tr><tr><td style="font-weight:bold;vertical-align:top;">is_shell</td><td style="vertical-align:top;">:</td><td><div>False</div></td></tr><tr><td style="font-weight:bold;vertical-align:top;">now</td><td style="vertical-align:top;">:</td><td><div>datetime.datetime(2017, 11, 15, 18, 29, 3, 201000)</div></td></tr><tr><td style="font-weight:bold;vertical-align:top;">raw_args</td><td style="vertical-align:top;">:</td><td><div></div></td></tr><tr><td style="font-weight:bold;vertical-align:top;">raw_extension</td><td style="vertical-align:top;">:</td><td><div>None</div></td></tr><tr><td style="font-weight:bold;vertical-align:top;">url</td><td style="vertical-align:top;">:</td><td><div>/HouseBook</div></td></tr><tr><td style="font-weight:bold;vertical-align:top;">utcnow</td><td style="vertical-align:top;">:</td><td><div>datetime.datetime(2017, 11, 15, 17, 29, 3, 202000)</div></td></tr><tr><td style="font-weight:bold;vertical-align:top;">wsgi</td><td style="vertical-align:top;">:</td><td><div>&lt;gluon.main.LazyWSGI object at 0x000000000A85C0F0&gt;</div></td></tr></table></div>'
tRp60
sS'frames'
p61
(lp62
(dp63
S'file'
p64
S'C:\\Users\\s8ewv6\\web2py\\gluon\\restricted.py'
p65
sS'dump'
p66
(dp67
S'environment'
p68
S"{'A': <class 'gluon.html.A'>, 'ANY_OF': <class 'gluon.validators.ANY_OF'>, 'ASSIGNJS': <function ASSIGNJS>, 'AppConfig': <function AppConfig>, 'Auth': <class 'gluon.tools.Auth'>, 'B': <class 'gluon.html.B'>, 'BEAUTIFY': <class 'gluon.html.BEAUTIFY'>, 'BODY': <class 'gluon.html.BODY'>, 'BR': <class 'gluon.html.BR'>, 'BUTTON': <class 'gluon.html.BUTTON'>, ...}"
p69
sS'ccode'
p70
S'<code object <module> at 0000000004993B30, file ...ions\\HouseBook\\views\\default/index.html", line 1>'
p71
ssS'lnum'
p72
I219
sS'lines'
p73
(dp74
I214
S'    if environment is None:'
p75
sI215
S'        environment = {}'
p76
sI216
S"    environment['__file__'] = layer"
p77
sI217
S"    environment['__name__'] = '__restricted__'"
p78
sI218
S'    try:'
p79
sI219
S'        exec(ccode, environment)'
p80
sI220
S'    except HTTP:'
p81
sI221
S'        raise'
p82
sI222
S'    except RestrictedError:'
p83
sI223
S'        # do not encapsulate (obfuscate) the original RestrictedError'
p84
ssS'call'
p85
S'(ccode=<code object <module> at 0000000004993B30, file ...ions\\HouseBook\\views\\default/index.html", line 1>, environment={\'A\': <class \'gluon.html.A\'>, \'ANY_OF\': <class \'gluon.validators.ANY_OF\'>, \'ASSIGNJS\': <function ASSIGNJS>, \'AppConfig\': <function AppConfig>, \'Auth\': <class \'gluon.tools.Auth\'>, \'B\': <class \'gluon.html.B\'>, \'BEAUTIFY\': <class \'gluon.html.BEAUTIFY\'>, \'BODY\': <class \'gluon.html.BODY\'>, \'BR\': <class \'gluon.html.BR\'>, \'BUTTON\': <class \'gluon.html.BUTTON\'>, ...}, layer=r\'C:\\Users\\s8ewv6\\web2py\\applications\\HouseBook\\views\\default/index.html\', scode=\'response.write(\\\'<!-- \\\', escape=False)\\nleft_sideb..."></script>\\\\n  </body>\\\\n</html>\\\\n\\\', escape=False)\')'
p86
sS'func'
p87
S'restricted'
p88
sa(dp89
g64
S'C:\\Users\\s8ewv6\\web2py\\applications\\HouseBook\\views\\default\\index.html'
p90
sg66
(dp91
sg72
I60
sg73
(dp92
I64
S'response.write(\'\\r\\n    <header class="container-fluid background">\\r\\n      <div class="jumbotron text-center">\\r\\n        \', escape=False)'
p93
sI65
S'if response.title:'
p94
sI66
S"    response.write('\\r\\n        <h1>', escape=False)"
p95
sI67
S'    response.write(response.title)'
p96
sI68
S"    response.write('\\r\\n          <small>', escape=False)"
p97
sI69
S"    response.write(response.subtitle or '')"
p98
sI70
S"    response.write('</small></h1>\\r\\n        ', escape=False)"
p99
sI51
S'response.write(\'\\n  </head>\\n  <body>\\n    <!--[if lt IE 8]><p class="browserupgrade">You are using an <strong>outdated</strong> browser. Please <a href="http://browsehappy.com/">upgrade your browser</a> to improve your experience.</p><![endif]-->\\n    <div class="w2p_flash alert alert-dismissable">\', escape=False)'
p100
sI52
S"response.write(response.flash or '')"
p101
sI53
S'response.write(\'</div>\\n    <!-- Navbar ======================================= -->\\n    <nav class="navbar navbar-default navbar-fixed-top" role="navigation">\\n      <div class="container-fluid">\\n        <div class="navbar-header">\\n          <button type="button" class="navbar-toggle" data-toggle="collapse" data-target=".navbar-collapse">\\n            <span class="sr-only">Toggle navigation</span>\\n            <span class="icon-bar"></span>\\n            <span class="icon-bar"></span>\\n            <span class="icon-bar"></span>\\n          </button>\\n          \', escape=False)'
p102
sI54
S"response.write(response.logo or '')"
p103
sI55
S'response.write(\'\\n        </div>\\n        <div class="collapse navbar-collapse">\\n          <ul class="nav navbar-nav navbar-right">\\n            \', escape=False)'
p104
sI56
S"response.write('auth' in globals() and auth.navbar('Welcome',mode='dropdown') or '')"
p105
sI57
S"response.write('\\n          </ul>\\n          ', escape=False)"
p106
sI58
S'if response.menu:'
p107
sI59
S"    response.write('\\n          ', escape=False)"
p108
sI60
S"    response.write(MENU(response.menu, _class='nav navbar-nav',li_class='dropdown',ul_class='dropdown-menu'))"
p109
sI61
S"    response.write('\\n          ', escape=False)"
p110
sI62
S'    pass'
p111
sI63
S"response.write('\\n        </div>\\n      </div>\\n    </nav>\\n    <!-- Masthead ===================================== -->    \\n    ', escape=False)"
p112
ssg85
S'()'
p113
sg87
S'<module>'
p114
sa(dp115
g64
S'C:\\Users\\s8ewv6\\web2py\\gluon\\globals.py'
p116
sg66
(dp117
S'self.body.write'
p118
S'<built-in method write of cStringIO.StringO object>'
p119
sS'global xmlescape'
p120
S'<function xmlescape>'
p121
sS'self'
p122
S"<Storage {'body': <cStringIO.StringO object at 0...000000000A84CB38>, 'view': 'default/index.html'}>"
p123
sS'self.body'
p124
S'<cStringIO.StringO object>'
p125
sS'global to_native'
p126
S'<function to_native>'
p127
sS'data'
p128
S'<gluon.html.MENU object>'
p129
ssg72
I427
sg73
(dp130
I422
S''
sI423
S'    def write(self, data, escape=True):'
p131
sI424
S'        if not escape:'
p132
sI425
S'            self.body.write(str(data))'
p133
sI426
S'        else:'
p134
sI427
S'            self.body.write(to_native(xmlescape(data)))'
p135
sI428
S''
sI429
S'    def render(self, *a, **b):'
p136
sI430
S'        from gluon.compileapp import run_view_in'
p137
sI431
S'        if len(a) > 2:'
p138
ssg85
S"(self=<Storage {'body': <cStringIO.StringO object at 0...000000000A84CB38>, 'view': 'default/index.html'}>, data=<gluon.html.MENU object>, escape=True)"
p139
sg87
S'write'
p140
sa(dp141
g64
S'C:\\Users\\s8ewv6\\web2py\\gluon\\html.py'
p142
sg66
(dp143
S'data'
p144
S'<gluon.html.MENU object>'
p145
sS'data.xml'
p146
S'<bound method MENU.xml of <gluon.html.MENU object>>'
p147
sS'global to_bytes'
p148
S'<function to_bytes>'
p149
ssg72
I125
sg73
(dp150
I128
S'        # i.e., integers'
p151
sI129
S'        data = str(data)'
p152
sI120
S'        quote: optional (default False)'
p153
sI121
S'    """'
p154
sI122
S''
sI123
S'    # first try the xml function'
p155
sI124
S"    if hasattr(data, 'xml') and callable(data.xml):"
p156
sI125
S'        return to_bytes(data.xml())'
p157
sI126
S''
sI127
S'    if not(isinstance(data, (text_type, bytes))):'
p158
ssg85
S'(data=<gluon.html.MENU object>, quote=True)'
p159
sg87
S'xmlescape'
p160
sa(dp161
g64
S'C:\\Users\\s8ewv6\\web2py\\gluon\\html.py'
p162
sg66
(dp163
S'self.serialize'
p164
S'<bound method MENU.serialize of <gluon.html.MENU object>>'
p165
sS').xml'
p166
S'undefined'
p167
sS'self'
p168
S'<gluon.html.MENU object>'
p169
sS'self.data'
p170
S'[(<lazyT \'Home\'>, False, \'/HouseBook/default/index\', []), <lazyT \'Address Update\'>, False, \'/HouseBook/address/index\', [], (<lazyT \'My Sites\'>, False, \'/admin/default/site\'), (<lazyT \'This App\'>, False, \'#\', [(<lazyT \'Design\'>, False, \'/admin/default/design/HouseBook\'), <gluon.html.LI object>, (<lazyT \'Controller\'>, False, \'/admin/default/edit/HouseBook/controllers/default.py\'), (<lazyT \'View\'>, False, \'/admin/default/edit/HouseBook/views/default/index.html\'), (<lazyT \'DB Model\'>, False, \'/admin/default/edit/HouseBook/models/db.py\'), (<lazyT \'Menu Model\'>, False, \'/admin/default/edit/HouseBook/models/menu.py\'), (<lazyT \'Config.ini\'>, False, \'/admin/default/edit/HouseBook/private/appconfig.ini\'), (<lazyT \'Layout\'>, False, \'/admin/default/edit/HouseBook/views/layout.html\'), (<lazyT \'Stylesheet\'>, False, \'/admin/default/edit/HouseBook/static/css/web2py-bootstrap3.css\'), (<lazyT \'Database\'>, False, \'/HouseBook/appadmin/index\'), (<lazyT \'Errors\'>, False, \'/admin/default/errors/HouseBook\'), (<lazyT \'About\'>, False, \'/admin/default/about/HouseBook\')]), (\'web2py.com\', False, \'#\', [(<lazyT \'Download\'>, False, \'http://www.web2py.com/examples/default/download\'), (<lazyT \'Support\'>, False, \'http://www.web2py.com/examples/default/support\'), (<lazyT \'Demo\'>, False, \'http://web2py.com/demo_admin\'), (<lazyT \'Quick Examples\'>, False, \'http://web2py.com/examples/default/examples\'), (<lazyT \'FAQ\'>, False, \'http://web2py.com/AlterEgo\'), (<lazyT \'Videos\'>, False, \'http://www.web2py.com/examples/default/videos/\'), (<lazyT \'Free Applications\'>, False, \'http://web2py.com/appliances\'), (<lazyT \'Plugins\'>, False, \'http://web2py.com/plugins\'), (<lazyT \'Recipes\'>, False, \'http://web2pyslices.com/\')]), (<lazyT \'Documentation\'>, False, \'#\', [(<lazyT \'Online book\'>, False, \'http://www.web2py.com/book\'), <gluon.html.LI object>, (<lazyT \'Preface\'>, False, \'http://www.web2py.com/book/default/chapter/00\'), (<lazyT \'Introduction\'>, False, \'http://www.web2py.com/book/default/chapter/01\'), (<lazyT \'Python\'>, False, \'http://www.web2py.com/book/default/chapter/02\'), (<lazyT \'Overview\'>, False, \'http://www.web2py.com/book/default/chapter/03\'), (<lazyT \'The Core\'>, False, \'http://www.web2py.com/book/default/chapter/04\'), (<lazyT \'The Views\'>, False, \'http://www.web2py.com/book/default/chapter/05\'), (<lazyT \'Database\'>, False, \'http://www.web2py.com/book/default/chapter/06\'), (<lazyT \'Forms and Validators\'>, False, \'http://www.web2py.com/book/default/chapter/07\'), (<lazyT \'Email and SMS\'>, False, \'http://www.web2py.com/book/default/chapter/08\'), (<lazyT \'Access Control\'>, False, \'http://www.web2py.com/book/default/chapter/09\'), (<lazyT \'Services\'>, False, \'http://www.web2py.com/book/default/chapter/10\'), (<lazyT \'Ajax Recipes\'>, False, \'http://www.web2py.com/book/default/chapter/11\'), (<lazyT \'Components and Plugins\'>, False, \'http://www.web2py.com/book/default/chapter/12\'), (<lazyT \'Deployment Recipes\'>, False, \'http://www.web2py.com/book/default/chapter/13\'), (<lazyT \'Other Recipes\'>, False, \'http://www.web2py.com/book/default/chapter/14\'), (<lazyT \'Helping web2py\'>, False, \'http://www.web2py.com/book/default/chapter/15\'), (<lazyT "Buy web2py\'s book">, False, \'http://stores.lulu.com/web2py\')]), (<lazyT \'Community\'>, False, None, [(<lazyT \'Groups\'>, False, \'http://www.web2py.com/examples/default/usergroups\'), (<lazyT \'Twitter\'>, False, \'http://twitter.com/web2py\'), (<lazyT \'Live Chat\'>, False, \'http://webchat.freenode.net/?channels=web2py\')])]'
p171
ssg72
I2581
sg73
(dp172
I2576
S''
sI2577
S'    def xml(self):'
p173
sI2578
S"        if self['mobile']:"
p174
sI2579
S'            return self.serialize_mobile(self.data, 0).xml()'
p175
sI2580
S'        else:'
p176
sI2581
S'            return self.serialize(self.data, 0).xml()'
p177
sI2582
S''
sI2583
S''
sI2584
S'def embed64(filename=None,'
p178
sI2585
S'            file=None,'
p179
ssg85
S'(self=<gluon.html.MENU object>)'
p180
sg87
S'xml'
p181
sa(dp182
g64
S'C:\\Users\\s8ewv6\\web2py\\gluon\\html.py'
p183
sg66
(dp184
S'level'
p185
S'0'
sS'self'
p186
S'<gluon.html.MENU object>'
p187
sS'li'
p188
S'<gluon.html.LI object>'
p189
sS'li.append'
p190
S'<bound method LI.append of <gluon.html.LI object>>'
p191
sS'item'
p192
S"<lazyT 'Address Update'>"
p193
sS'self.serialize'
p194
S'<bound method MENU.serialize of <gluon.html.MENU object>>'
p195
ssg72
I2546
sg73
(dp196
I2541
S"                    li['_class'] = self['li_first']"
p197
sI2542
S'                elif level == 0 and item == data[-1]:'
p198
sI2543
S"                    li['_class'] = self['li_last']"
p199
sI2544
S'                if len(item) > 3 and item[3]:'
p200
sI2545
S"                    li['_class'] = self['li_class']"
p201
sI2546
S'                    li.append(self.serialize(item[3], level + 1))'
p202
sI2547
S"                if active or ('active_url' in self.attributes and self['active_url'] == link):"
p203
sI2548
S"                    if li['_class']:"
p204
sI2549
S"                        li['_class'] = li['_class'] + ' ' + self['li_active']"
p205
sI2550
S'                    else:'
p206
ssg85
S'(self=<gluon.html.MENU object>, data=[(<lazyT \'Home\'>, False, \'/HouseBook/default/index\', []), <lazyT \'Address Update\'>, False, \'/HouseBook/address/index\', [], (<lazyT \'My Sites\'>, False, \'/admin/default/site\'), (<lazyT \'This App\'>, False, \'#\', [(<lazyT \'Design\'>, False, \'/admin/default/design/HouseBook\'), <gluon.html.LI object>, (<lazyT \'Controller\'>, False, \'/admin/default/edit/HouseBook/controllers/default.py\'), (<lazyT \'View\'>, False, \'/admin/default/edit/HouseBook/views/default/index.html\'), (<lazyT \'DB Model\'>, False, \'/admin/default/edit/HouseBook/models/db.py\'), (<lazyT \'Menu Model\'>, False, \'/admin/default/edit/HouseBook/models/menu.py\'), (<lazyT \'Config.ini\'>, False, \'/admin/default/edit/HouseBook/private/appconfig.ini\'), (<lazyT \'Layout\'>, False, \'/admin/default/edit/HouseBook/views/layout.html\'), (<lazyT \'Stylesheet\'>, False, \'/admin/default/edit/HouseBook/static/css/web2py-bootstrap3.css\'), (<lazyT \'Database\'>, False, \'/HouseBook/appadmin/index\'), (<lazyT \'Errors\'>, False, \'/admin/default/errors/HouseBook\'), (<lazyT \'About\'>, False, \'/admin/default/about/HouseBook\')]), (\'web2py.com\', False, \'#\', [(<lazyT \'Download\'>, False, \'http://www.web2py.com/examples/default/download\'), (<lazyT \'Support\'>, False, \'http://www.web2py.com/examples/default/support\'), (<lazyT \'Demo\'>, False, \'http://web2py.com/demo_admin\'), (<lazyT \'Quick Examples\'>, False, \'http://web2py.com/examples/default/examples\'), (<lazyT \'FAQ\'>, False, \'http://web2py.com/AlterEgo\'), (<lazyT \'Videos\'>, False, \'http://www.web2py.com/examples/default/videos/\'), (<lazyT \'Free Applications\'>, False, \'http://web2py.com/appliances\'), (<lazyT \'Plugins\'>, False, \'http://web2py.com/plugins\'), (<lazyT \'Recipes\'>, False, \'http://web2pyslices.com/\')]), (<lazyT \'Documentation\'>, False, \'#\', [(<lazyT \'Online book\'>, False, \'http://www.web2py.com/book\'), <gluon.html.LI object>, (<lazyT \'Preface\'>, False, \'http://www.web2py.com/book/default/chapter/00\'), (<lazyT \'Introduction\'>, False, \'http://www.web2py.com/book/default/chapter/01\'), (<lazyT \'Python\'>, False, \'http://www.web2py.com/book/default/chapter/02\'), (<lazyT \'Overview\'>, False, \'http://www.web2py.com/book/default/chapter/03\'), (<lazyT \'The Core\'>, False, \'http://www.web2py.com/book/default/chapter/04\'), (<lazyT \'The Views\'>, False, \'http://www.web2py.com/book/default/chapter/05\'), (<lazyT \'Database\'>, False, \'http://www.web2py.com/book/default/chapter/06\'), (<lazyT \'Forms and Validators\'>, False, \'http://www.web2py.com/book/default/chapter/07\'), (<lazyT \'Email and SMS\'>, False, \'http://www.web2py.com/book/default/chapter/08\'), (<lazyT \'Access Control\'>, False, \'http://www.web2py.com/book/default/chapter/09\'), (<lazyT \'Services\'>, False, \'http://www.web2py.com/book/default/chapter/10\'), (<lazyT \'Ajax Recipes\'>, False, \'http://www.web2py.com/book/default/chapter/11\'), (<lazyT \'Components and Plugins\'>, False, \'http://www.web2py.com/book/default/chapter/12\'), (<lazyT \'Deployment Recipes\'>, False, \'http://www.web2py.com/book/default/chapter/13\'), (<lazyT \'Other Recipes\'>, False, \'http://www.web2py.com/book/default/chapter/14\'), (<lazyT \'Helping web2py\'>, False, \'http://www.web2py.com/book/default/chapter/15\'), (<lazyT "Buy web2py\'s book">, False, \'http://stores.lulu.com/web2py\')]), (<lazyT \'Community\'>, False, None, [(<lazyT \'Groups\'>, False, \'http://www.web2py.com/examples/default/usergroups\'), (<lazyT \'Twitter\'>, False, \'http://twitter.com/web2py\'), (<lazyT \'Live Chat\'>, False, \'http://webchat.freenode.net/?channels=web2py\')])], level=0)'
p207
sg87
S'serialize'
p208
sa(dp209
g64
S'C:\\Users\\s8ewv6\\web2py\\gluon\\html.py'
p210
sg66
(dp211
S'active'
p212
g167
sS'item'
p213
S"'r'"
p214
sS'link'
p215
g167
sS'name'
p216
g167
ssg72
I2526
sg73
(dp217
I2528
S'                    li = LI(link)'
p218
sI2529
S"                elif 'no_link_url' in self.attributes and self['no_link_url'] == link:"
p219
sI2530
S'                    li = LI(DIV(name))'
p220
sI2521
S"            ul = UL(_class=self['ul_class'])"
p221
sI2522
S'        for item in data:'
p222
sI2523
S'            if isinstance(item, LI):'
p223
sI2524
S'                ul.append(item)'
p224
sI2525
S'            else:'
p225
sI2526
S'                (name, active, link) = item[:3]'
p226
sI2527
S'                if isinstance(link, DIV):'
p227
ssg85
S"(self=<gluon.html.MENU object>, data='r', level=1)"
p228
sg87
g208
sasS'pyver'
p229
S'Python 2.7.13: C:\\Python27\\python.exe (prefix: C:\\Python27)'
p230
sS'session'
p231
g59
(S's\x1a\x00\x00\x00<div><table></table></div>'
tRp232
sS'etype'
p233
S"<type 'exceptions.ValueError'>"
p234
sS'date'
p235
S'Wed Nov 15 18:29:04 2017'
p236
sS'response'
p237
g59
(S's\x04@\x00\x00<div><table><tr><td style="font-weight:bold;vertical-align:top;">body</td><td style="vertical-align:top;">:</td><td><div>&lt;cStringIO.StringO object at 0x000000000A845F10&gt;</div></td></tr><tr><td style="font-weight:bold;vertical-align:top;">cookies</td><td style="vertical-align:top;">:</td><td><div><table><tr><td style="font-weight:bold;vertical-align:top;">session_id_housebook</td><td style="vertical-align:top;">:</td><td><div>127.0.0.1-5edcb2d5-d7ec-4756-85ea-5d2a822948f0<table><tr><td style="font-weight:bold;vertical-align:top;">comment</td><td style="vertical-align:top;">:</td><td><div></div></td></tr><tr><td style="font-weight:bold;vertical-align:top;">domain</td><td style="vertical-align:top;">:</td><td><div></div></td></tr><tr><td style="font-weight:bold;vertical-align:top;">expires</td><td style="vertical-align:top;">:</td><td><div></div></td></tr><tr><td style="font-weight:bold;vertical-align:top;">httponly</td><td style="vertical-align:top;">:</td><td><div></div></td></tr><tr><td style="font-weight:bold;vertical-align:top;">max-age</td><td style="vertical-align:top;">:</td><td><div></div></td></tr><tr><td style="font-weight:bold;vertical-align:top;">path</td><td style="vertical-align:top;">:</td><td><div>/</div></td></tr><tr><td style="font-weight:bold;vertical-align:top;">secure</td><td style="vertical-align:top;">:</td><td><div></div></td></tr><tr><td style="font-weight:bold;vertical-align:top;">version</td><td style="vertical-align:top;">:</td><td><div></div></td></tr></table></div></td></tr></table></div></td></tr><tr><td style="font-weight:bold;vertical-align:top;">delimiters</td><td style="vertical-align:top;">:</td><td><div><table><tr><td><div>{{</div></td></tr><tr><td><div>}}</div></td></tr></table></div></td></tr><tr><td style="font-weight:bold;vertical-align:top;">files</td><td style="vertical-align:top;">:</td><td><div><table><tr><td><div>/HouseBook/static/js/jquery.js</div></td></tr><tr><td><div>/HouseBook/static/css/calendar.css</div></td></tr><tr><td><div>/HouseBook/static/js/calendar.js</div></td></tr><tr><td><div>/HouseBook/static/js/web2py.js</div></td></tr></table></div></td></tr><tr><td style="font-weight:bold;vertical-align:top;">flash</td><td style="vertical-align:top;">:</td><td><div>Please login to use the app</div></td></tr><tr><td style="font-weight:bold;vertical-align:top;">form_label_separator</td><td style="vertical-align:top;">:</td><td><div></div></td></tr><tr><td style="font-weight:bold;vertical-align:top;">formstyle</td><td style="vertical-align:top;">:</td><td><div>bootstrap3_inline</div></td></tr><tr><td style="font-weight:bold;vertical-align:top;">generic_patterns</td><td style="vertical-align:top;">:</td><td><div><table><tr><td><div>*</div></td></tr></table></div></td></tr><tr><td style="font-weight:bold;vertical-align:top;">google_analytics_id</td><td style="vertical-align:top;">:</td><td><div>None</div></td></tr><tr><td style="font-weight:bold;vertical-align:top;">headers</td><td style="vertical-align:top;">:</td><td><div><table><tr><td style="font-weight:bold;vertical-align:top;">X-Powered-By</td><td style="vertical-align:top;">:</td><td><div>web2py</div></td></tr></table></div></td></tr><tr><td style="font-weight:bold;vertical-align:top;">logo</td><td style="vertical-align:top;">:</td><td><div><a class="navbar-brand" href="http://www.web2py.com/" id="web2py-logo"><b>web<span>2</span>py</b>&trade;&nbsp;</a></div></td></tr><tr><td style="font-weight:bold;vertical-align:top;">menu</td><td style="vertical-align:top;">:</td><td><div><table><tr><td><div><table><tr><td><div>Home</div></td></tr><tr><td><div>False</div></td></tr><tr><td><div>/HouseBook/default/index</div></td></tr><tr><td><div><table></table></div></td></tr></table></div></td></tr><tr><td><div>Address Update</div></td></tr><tr><td><div>False</div></td></tr><tr><td><div>/HouseBook/address/index</div></td></tr><tr><td><div><table></table></div></td></tr><tr><td><div><table><tr><td><div>My Sites</div></td></tr><tr><td><div>False</div></td></tr><tr><td><div>/admin/default/site</div></td></tr></table></div></td></tr><tr><td><div><table><tr><td><div>This App</div></td></tr><tr><td><div>False</div></td></tr><tr><td><div>#</div></td></tr><tr><td><div><table><tr><td><div><table><tr><td><div>Design</div></td></tr><tr><td><div>False</div></td></tr><tr><td><div>/admin/default/design/HouseBook</div></td></tr></table></div></td></tr><tr><td><div><li class="divider"></li></div></td></tr><tr><td><div><table><tr><td><div>Controller</div></td></tr><tr><td><div>False</div></td></tr><tr><td><div>/admin/default/edit/HouseBook/controllers/default.py</div></td></tr></table></div></td></tr><tr><td><div><table><tr><td><div>View</div></td></tr><tr><td><div>False</div></td></tr><tr><td><div>/admin/default/edit/HouseBook/views/default/index.html</div></td></tr></table></div></td></tr><tr><td><div><table><tr><td><div>DB Model</div></td></tr><tr><td><div>False</div></td></tr><tr><td><div>/admin/default/edit/HouseBook/models/db.py</div></td></tr></table></div></td></tr><tr><td><div><table><tr><td><div>Menu Model</div></td></tr><tr><td><div>False</div></td></tr><tr><td><div>/admin/default/edit/HouseBook/models/menu.py</div></td></tr></table></div></td></tr><tr><td><div><table><tr><td><div>Config.ini</div></td></tr><tr><td><div>False</div></td></tr><tr><td><div>/admin/default/edit/HouseBook/private/appconfig.ini</div></td></tr></table></div></td></tr><tr><td><div><table><tr><td><div>Layout</div></td></tr><tr><td><div>False</div></td></tr><tr><td><div>/admin/default/edit/HouseBook/views/layout.html</div></td></tr></table></div></td></tr><tr><td><div><table><tr><td><div>Stylesheet</div></td></tr><tr><td><div>False</div></td></tr><tr><td><div>/admin/default/edit/HouseBook/static/css/web2py-bootstrap3.css</div></td></tr></table></div></td></tr><tr><td><div><table><tr><td><div>Database</div></td></tr><tr><td><div>False</div></td></tr><tr><td><div>/HouseBook/appadmin/index</div></td></tr></table></div></td></tr><tr><td><div><table><tr><td><div>Errors</div></td></tr><tr><td><div>False</div></td></tr><tr><td><div>/admin/default/errors/HouseBook</div></td></tr></table></div></td></tr><tr><td><div><table><tr><td><div>About</div></td></tr><tr><td><div>False</div></td></tr><tr><td><div>/admin/default/about/HouseBook</div></td></tr></table></div></td></tr></table></div></td></tr></table></div></td></tr><tr><td><div><table><tr><td><div>web2py.com</div></td></tr><tr><td><div>False</div></td></tr><tr><td><div>#</div></td></tr><tr><td><div><table><tr><td><div><table><tr><td><div>Download</div></td></tr><tr><td><div>False</div></td></tr><tr><td><div>http://www.web2py.com/examples/default/download</div></td></tr></table></div></td></tr><tr><td><div><table><tr><td><div>Support</div></td></tr><tr><td><div>False</div></td></tr><tr><td><div>http://www.web2py.com/examples/default/support</div></td></tr></table></div></td></tr><tr><td><div><table><tr><td><div>Demo</div></td></tr><tr><td><div>False</div></td></tr><tr><td><div>http://web2py.com/demo_admin</div></td></tr></table></div></td></tr><tr><td><div><table><tr><td><div>Quick Examples</div></td></tr><tr><td><div>False</div></td></tr><tr><td><div>http://web2py.com/examples/default/examples</div></td></tr></table></div></td></tr><tr><td><div><table><tr><td><div>FAQ</div></td></tr><tr><td><div>False</div></td></tr><tr><td><div>http://web2py.com/AlterEgo</div></td></tr></table></div></td></tr><tr><td><div><table><tr><td><div>Videos</div></td></tr><tr><td><div>False</div></td></tr><tr><td><div>http://www.web2py.com/examples/default/videos/</div></td></tr></table></div></td></tr><tr><td><div><table><tr><td><div>Free Applications</div></td></tr><tr><td><div>False</div></td></tr><tr><td><div>http://web2py.com/appliances</div></td></tr></table></div></td></tr><tr><td><div><table><tr><td><div>Plugins</div></td></tr><tr><td><div>False</div></td></tr><tr><td><div>http://web2py.com/plugins</div></td></tr></table></div></td></tr><tr><td><div><table><tr><td><div>Recipes</div></td></tr><tr><td><div>False</div></td></tr><tr><td><div>http://web2pyslices.com/</div></td></tr></table></div></td></tr></table></div></td></tr></table></div></td></tr><tr><td><div><table><tr><td><div>Documentation</div></td></tr><tr><td><div>False</div></td></tr><tr><td><div>#</div></td></tr><tr><td><div><table><tr><td><div><table><tr><td><div>Online book</div></td></tr><tr><td><div>False</div></td></tr><tr><td><div>http://www.web2py.com/book</div></td></tr></table></div></td></tr><tr><td><div><li class="divider"></li></div></td></tr><tr><td><div><table><tr><td><div>Preface</div></td></tr><tr><td><div>False</div></td></tr><tr><td><div>http://www.web2py.com/book/default/chapter/00</div></td></tr></table></div></td></tr><tr><td><div><table><tr><td><div>Introduction</div></td></tr><tr><td><div>False</div></td></tr><tr><td><div>http://www.web2py.com/book/default/chapter/01</div></td></tr></table></div></td></tr><tr><td><div><table><tr><td><div>Python</div></td></tr><tr><td><div>False</div></td></tr><tr><td><div>http://www.web2py.com/book/default/chapter/02</div></td></tr></table></div></td></tr><tr><td><div><table><tr><td><div>Overview</div></td></tr><tr><td><div>False</div></td></tr><tr><td><div>http://www.web2py.com/book/default/chapter/03</div></td></tr></table></div></td></tr><tr><td><div><table><tr><td><div>The Core</div></td></tr><tr><td><div>False</div></td></tr><tr><td><div>http://www.web2py.com/book/default/chapter/04</div></td></tr></table></div></td></tr><tr><td><div><table><tr><td><div>The Views</div></td></tr><tr><td><div>False</div></td></tr><tr><td><div>http://www.web2py.com/book/default/chapter/05</div></td></tr></table></div></td></tr><tr><td><div><table><tr><td><div>Database</div></td></tr><tr><td><div>False</div></td></tr><tr><td><div>http://www.web2py.com/book/default/chapter/06</div></td></tr></table></div></td></tr><tr><td><div><table><tr><td><div>Forms and Validators</div></td></tr><tr><td><div>False</div></td></tr><tr><td><div>http://www.web2py.com/book/default/chapter/07</div></td></tr></table></div></td></tr><tr><td><div><table><tr><td><div>Email and SMS</div></td></tr><tr><td><div>False</div></td></tr><tr><td><div>http://www.web2py.com/book/default/chapter/08</div></td></tr></table></div></td></tr><tr><td><div><table><tr><td><div>Access Control</div></td></tr><tr><td><div>False</div></td></tr><tr><td><div>http://www.web2py.com/book/default/chapter/09</div></td></tr></table></div></td></tr><tr><td><div><table><tr><td><div>Services</div></td></tr><tr><td><div>False</div></td></tr><tr><td><div>http://www.web2py.com/book/default/chapter/10</div></td></tr></table></div></td></tr><tr><td><div><table><tr><td><div>Ajax Recipes</div></td></tr><tr><td><div>False</div></td></tr><tr><td><div>http://www.web2py.com/book/default/chapter/11</div></td></tr></table></div></td></tr><tr><td><div><table><tr><td><div>Components and Plugins</div></td></tr><tr><td><div>False</div></td></tr><tr><td><div>http://www.web2py.com/book/default/chapter/12</div></td></tr></table></div></td></tr><tr><td><div><table><tr><td><div>Deployment Recipes</div></td></tr><tr><td><div>False</div></td></tr><tr><td><div>http://www.web2py.com/book/default/chapter/13</div></td></tr></table></div></td></tr><tr><td><div><table><tr><td><div>Other Recipes</div></td></tr><tr><td><div>False</div></td></tr><tr><td><div>http://www.web2py.com/book/default/chapter/14</div></td></tr></table></div></td></tr><tr><td><div><table><tr><td><div>Helping web2py</div></td></tr><tr><td><div>False</div></td></tr><tr><td><div>http://www.web2py.com/book/default/chapter/15</div></td></tr></table></div></td></tr><tr><td><div><table><tr><td><div>Buy web2py\'s book</div></td></tr><tr><td><div>False</div></td></tr><tr><td><div>http://stores.lulu.com/web2py</div></td></tr></table></div></td></tr></table></div></td></tr></table></div></td></tr><tr><td><div><table><tr><td><div>Community</div></td></tr><tr><td><div>False</div></td></tr><tr><td><div>None</div></td></tr><tr><td><div><table><tr><td><div><table><tr><td><div>Groups</div></td></tr><tr><td><div>False</div></td></tr><tr><td><div>http://www.web2py.com/examples/default/usergroups</div></td></tr></table></div></td></tr><tr><td><div><table><tr><td><div>Twitter</div></td></tr><tr><td><div>False</div></td></tr><tr><td><div>http://twitter.com/web2py</div></td></tr></table></div></td></tr><tr><td><div><table><tr><td><div>Live Chat</div></td></tr><tr><td><div>False</div></td></tr><tr><td><div>http://webchat.freenode.net/?channels=web2py</div></td></tr></table></div></td></tr></table></div></td></tr></table></div></td></tr></table></div></td></tr><tr><td style="font-weight:bold;vertical-align:top;">meta</td><td style="vertical-align:top;">:</td><td><div><table><tr><td style="font-weight:bold;vertical-align:top;">author</td><td style="vertical-align:top;">:</td><td><div>Your Name &lt;you@example.com&gt;</div></td></tr><tr><td style="font-weight:bold;vertical-align:top;">description</td><td style="vertical-align:top;">:</td><td><div>a cool new app</div></td></tr><tr><td style="font-weight:bold;vertical-align:top;">generator</td><td style="vertical-align:top;">:</td><td><div>Web2py Web Framework</div></td></tr><tr><td style="font-weight:bold;vertical-align:top;">keywords</td><td style="vertical-align:top;">:</td><td><div><table><tr><td><div>web2py</div></td></tr><tr><td><div>python</div></td></tr><tr><td><div>framework</div></td></tr></table></div></td></tr></table></div></td></tr><tr><td style="font-weight:bold;vertical-align:top;">models_to_run</td><td style="vertical-align:top;">:</td><td><div><table><tr><td><div>^\\w+\\.py$</div></td></tr><tr><td><div>^default/\\w+\\.py$</div></td></tr><tr><td><div>^default/index/\\w+\\.py$</div></td></tr></table></div></td></tr><tr><td style="font-weight:bold;vertical-align:top;">postprocessing</td><td style="vertical-align:top;">:</td><td><div><table></table></div></td></tr><tr><td style="font-weight:bold;vertical-align:top;">session_client</td><td style="vertical-align:top;">:</td><td><div>127.0.0.1</div></td></tr><tr><td style="font-weight:bold;vertical-align:top;">session_cookie_compression_level</td><td style="vertical-align:top;">:</td><td><div>None</div></td></tr><tr><td style="font-weight:bold;vertical-align:top;">session_cookie_expires</td><td style="vertical-align:top;">:</td><td><div>None</div></td></tr><tr><td style="font-weight:bold;vertical-align:top;">session_data_name</td><td style="vertical-align:top;">:</td><td><div>session_data_housebook</div></td></tr><tr><td style="font-weight:bold;vertical-align:top;">session_file</td><td style="vertical-align:top;">:</td><td><div>None</div></td></tr><tr><td style="font-weight:bold;vertical-align:top;">session_filename</td><td style="vertical-align:top;">:</td><td><div>C:\\Users\\s8ewv6\\web2py\\applications\\HouseBook\\sessions\\127.0.0.1-5edcb2d5-d7ec-4756-85ea-5d2a822948f0</div></td></tr><tr><td style="font-weight:bold;vertical-align:top;">session_hash</td><td style="vertical-align:top;">:</td><td><div>c0762cbf4baf7f9af97c051e7fcb8083</div></td></tr><tr><td style="font-weight:bold;vertical-align:top;">session_id</td><td style="vertical-align:top;">:</td><td><div>127.0.0.1-5edcb2d5-d7ec-4756-85ea-5d2a822948f0</div></td></tr><tr><td style="font-weight:bold;vertical-align:top;">session_id_name</td><td style="vertical-align:top;">:</td><td><div>session_id_housebook</div></td></tr><tr><td style="font-weight:bold;vertical-align:top;">session_masterapp</td><td style="vertical-align:top;">:</td><td><div>HouseBook</div></td></tr><tr><td style="font-weight:bold;vertical-align:top;">session_new</td><td style="vertical-align:top;">:</td><td><div>True</div></td></tr><tr><td style="font-weight:bold;vertical-align:top;">session_storage_type</td><td style="vertical-align:top;">:</td><td><div>file</div></td></tr><tr><td style="font-weight:bold;vertical-align:top;">status</td><td style="vertical-align:top;">:</td><td><div>200</div></td></tr><tr><td style="font-weight:bold;vertical-align:top;">subtitle</td><td style="vertical-align:top;">:</td><td><div></div></td></tr><tr><td style="font-weight:bold;vertical-align:top;">title</td><td style="vertical-align:top;">:</td><td><div>Housebook</div></td></tr><tr><td style="font-weight:bold;vertical-align:top;">view</td><td style="vertical-align:top;">:</td><td><div>default/index.html</div></td></tr></table></div>'
tRp238
sS'locals'
p239
(dp240
S'ul'
p241
S'<gluon.html.UL object>'
p242
sS'self'
p243
S'<gluon.html.MENU object>'
p244
sS'level'
p245
S'1'
sS'data'
p246
S"'r'"
p247
sS'item'
p248
S"'r'"
p249
sssS'traceback'
p250
S'Traceback (most recent call last):\n  File "C:\\Users\\s8ewv6\\web2py\\gluon\\restricted.py", line 219, in restricted\n    exec(ccode, environment)\n  File "C:\\Users\\s8ewv6\\web2py\\applications\\HouseBook\\views\\default/index.html", line 60, in <module>\n  File "C:\\Users\\s8ewv6\\web2py\\gluon\\globals.py", line 427, in write\n    self.body.write(to_native(xmlescape(data)))\n  File "C:\\Users\\s8ewv6\\web2py\\gluon\\html.py", line 125, in xmlescape\n    return to_bytes(data.xml())\n  File "C:\\Users\\s8ewv6\\web2py\\gluon\\html.py", line 2581, in xml\n    return self.serialize(self.data, 0).xml()\n  File "C:\\Users\\s8ewv6\\web2py\\gluon\\html.py", line 2546, in serialize\n    li.append(self.serialize(item[3], level + 1))\n  File "C:\\Users\\s8ewv6\\web2py\\gluon\\html.py", line 2526, in serialize\n    (name, active, link) = item[:3]\nValueError: need more than 1 value to unpack\n'
p251
s.